******************************************************************************
                  TI ARM Linker Unix v16.9.6                   
******************************************************************************
>> Linked Mon Feb  5 17:41:50 2024

OUTPUT FILE NAME:   <test/xwr18xxAOP_objectdetection_test_mss.xer4f>
ENTRY POINT SYMBOL: "_c_int00"  address: 00012b30


MEMORY CONFIGURATION

         name            origin    length      used     unused   attr    fill
----------------------  --------  ---------  --------  --------  ----  --------
PAGE 0:
  VECTORS               00000000   00000100  0000003c  000000c4     X
  PROG_RAM              00000100   0007ff00  000194e6  00066a1a  R  X
  DATA_RAM              08000000   00030000  0002b7cc  00004834  RW  
  L3_RAM                51000000   00100000  00100000  00000000  RW  
  HWA_RAM               52030000   00010000  00000000  00010000  RW  
  HS_RAM                52080000   00008000  00000000  00008000  RW  

PAGE 1:
  L3_RAM                51000000   00100000  00000000  00100000  RW  


SEGMENT ALLOCATION MAP

run origin  load origin   length   init length attrs members
----------  ----------- ---------- ----------- ----- -------
00000000    00000000    0000003c   0000003c    r--
  00000000    00000000    0000003c   0000003c    r-- .vecs
00000100    00000100    000194f0   000194f0    r-x
  00000100    00000100    00016b32   00016b32    r-x .text
  00016c38    00016c38    0000257c   0000257c    r-- .const
  000191b8    000191b8    00000438   00000438    r-- .cinit
08000000    08000000    0002b7d0   00000000    rw-
  08000000    08000000    00014000   00000000    rw- .tcmbHeap
  08014000    08014000    00011a3c   00000000    rw- .bss
  08025a40    08025a40    00002990   00000000    rw- .data
  080283d0    080283d0    00002400   00000000    rw- .MCPILogBuffer
  0802a7d0    0802a7d0    00001000   00000000    rw- .stack
51000000    51000000    00100000   00000000    rw-
  51000000    51000000    00100000   00000000    rw- .l3ram


SECTION ALLOCATION MAP

 output                                  attributes/
section   page    origin      length       input sections
--------  ----  ----------  ----------   ----------------
.vecs      0    00000000    0000003c     
                  00000000    0000003c     mss_per4ft.oer4ft (.vecs)

xdc.meta   0    00000000    00000130     COPY SECTION
                  00000000    00000130     mss_per4ft.oer4ft (xdc.meta)

.text      0    00000100    00016b32     
                  00000100    0000107a     rtsv7R4_T_le_v3D16_eabi.lib : _printfi.obj (.text)
                  0000117a    00000002     libhwa_xwr18xx.aer4f : hwa.oer4f (.text:HWA_init)
                  0000117c    00000a30     main.oer4f (.text:ObjectDetection_Test_task)
                  00001bac    00000684     rtsv7R4_T_le_v3D16_eabi.lib : e_pow.obj (.text)
                  00002230    00000670     libdopplerproc_hwa_xwr18xx.aer4f : dopplerprochwa.oer4f (.text:DPU_DopplerProcHWA_config)
                  000028a0    00000658     libhwa_xwr18xx.aer4f : hwa.oer4f (.text:HWA_configParamSet)
                  00002ef8    000005fc     rtsv7R4_T_le_v3D16_eabi.lib : k_rem_pio2.obj (.text)
                  000034f4    000005bd     objectdetection.oer4f (.text:DPC_ObjectDetection_ioctl)
                  00003ab1    00000001     --HOLE-- [fill = 0]
                  00003ab2    000005b4     libaoa2dproc_hwa_xwr18xx.aer4f : aoa2dprochwa.oer4f (.text:AoAProcHWA_config_HWA)
                  00004066    00000576                                    : aoa2dprochwa.oer4f (.text:AoAProcHWA_config_EDMA)
                  000045dc    00000564     librangeproc_hwa_xwr18xx.aer4f : rangeprochwa.oer4f (.text:DPU_RangeProcHWA_process)
                  00004b40    000004e1     sysbios.aer4ft : BIOS.obj (.text:xdc_runtime_System_doPrint__I)
                  00005021    00000001     --HOLE-- [fill = 0]
                  00005022    00000002     rtsv7R4_T_le_v3D16_eabi.lib : i_div0.obj (.text)
                  00005024    0000044c     objectdetection.oer4f (.text:DPC_ObjDet_rangeBiasRxChPhaseMeasure)
                  00005470    0000043c     librangeproc_hwa_xwr18xx.aer4f : rangeprochwa.oer4f (.text:DPU_RangeProcHWA_config)
                  000058ac    000003f4     libaoa2dproc_hwa_xwr18xx.aer4f : aoa2dprochwa.oer4f (.text:DPU_AoAProcHWA_process)
                  00005ca0    000003f4     rtsv7R4_T_le_v3D16_eabi.lib : s_cos.obj (.text)
                  00006094    000003f4                                 : s_sin.obj (.text)
                  00006488    00000308     libsoc_xwr18xx.aer4f : soc_xwr18xx_mss.oer4f (.text:SOC_deviceInit)
                  00006790    00000304     librangeproc_hwa_xwr18xx.aer4f : rangeprochwa.oer4f (.text:rangeProcHWA_ConfigEDMA_DataOut_nonInterleave)
                  00006a94    000002f8     main.oer4f (.text:ObjectDetection_Test_setProfile)
                  00006d8c    000002ec     rtsv7R4_T_le_v3D16_eabi.lib : ll_div32.obj (.text)
                  00007078    00000008     libaoa2dproc_hwa_xwr18xx.aer4f : aoa2dprochwa.oer4f (.text:AOAProcHWADoneIsrCallback)
                  00007080    000002e4     sysbios.aer4ft : BIOS.obj (.text:ti_sysbios_knl_Semaphore_pend__E)
                  00007364    000002d4     objectdetection.oer4f (.text:DPC_ObjDet_AoAconfig)
                  00007638    000002b8     libaoa2dproc_hwa_xwr18xx.aer4f : aoa2dprochwa.oer4f (.text:AoAProcHWA_dopplerCompensation)
                  000078f0    000002b8     rtsv7R4_T_le_v3D16_eabi.lib : ull_div32.obj (.text)
                  00007ba8    00000008     libcfarcaproc_hwa_xwr18xx.aer4f : cfarcaprochwa.oer4f (.text:CFARCAHWADoneIsrCallback)
                  00007bb0    000002a4     sysbios.aer4ft : BIOS.obj (.text:ti_sysbios_heaps_HeapMem_freeUnprotected__E)
                  00007e54    00000294     objectdetection.oer4f (.text:DPC_ObjectDetection_execute)
                  000080e8    00000008     objectdetection.oer4f (.text:DPC_ObjDet_MemPoolReset)
                  000080f0    00000280     sysbios.aer4ft : BIOS.obj (.text:ti_sysbios_family_arm_exc_Exception_excDumpContext__I)
                  00008370    00000264     rtsv7R4_T_le_v3D16_eabi.lib : e_log.obj (.text)
                  000085d4    00000260     libmailbox_xwr18xx.aer4f : mailbox.oer4f (.text:Mailbox_open)
                  00008834    00000248     gen_frame_data.oer4f (.text:genChirpData)
                  00008a7c    00000240     objectdetection.oer4f (.text:DPC_ObjDet_rangeConfig)
                  00008cbc    00000230     main.oer4f (.text:ObjectDetection_Test_configDPC)
                  00008eec    0000022c     librangeproc_hwa_xwr18xx.aer4f : rangeprochwa.oer4f (.text:rangeProcHWA_ConfigHWA)
                  00009118    00000008     libdopplerproc_hwa_xwr18xx.aer4f : dopplerprochwa.oer4f (.text:DPU_DopplerProcHWA_edmaDoneIsrCallback)
                  00009120    0000022c     sysbios.aer4ft : BIOS.obj (.text:ti_sysbios_knl_Task_Instance_finalize__E)
                  0000934c    00000004     libaoa2dproc_hwa_xwr18xx.aer4f : aoa2dprochwa.oer4f (.text:DPU_AoAProcHWA_getNumHwaParamSets)
                  00009350    00000228     sysbios.aer4ft : BIOS.obj (.text:ti_sysbios_heaps_HeapMem_allocUnprotected__E)
                  00009578    00000224     main.oer4f (.text:ObjectDetection_Test_CompareToRef)
                  0000979c    00000220     libhwa_xwr18xx.aer4f : hwa.oer4f (.text:HWA_configCommon)
                  000099bc    00000214     libedma_xwr18xx.aer4f : edma.oer4f (.text:EDMA_configChannel)
                  00009bd0    00000204     objectdetection.oer4f (.text:DPC_ObjDet_preStartConfig)
                  00009dd4    000001fa     libaoa2dproc_hwa_xwr18xx.aer4f : aoa2dprochwa.oer4f (.text:AoAProcHWA_config_azimuthHeatMap_HWA)
                  00009fce    00000002     rtsv7R4_T_le_v3D16_eabi.lib : l_div0.obj (.text)
                  00009fd0    000001ef     libedma_xwr18xx.aer4f : edma.oer4f (.text:EDMA_paramConfig_assist)
                  0000a1bf    00000001     --HOLE-- [fill = 0]
                  0000a1c0    000001ee     libaoa2dproc_hwa_xwr18xx.aer4f : aoa2dprochwa.oer4f (.text:AoAProcHWA_peakGrouping)
                  0000a3ae    00000002     mss_per4ft.oer4ft (.text:ti_sysbios_BIOS_nullFunc__I)
                  0000a3b0    000001e0     sysbios.aer4ft : BIOS.obj (.text:ti_sysbios_knl_Task_sleep__E)
                  0000a590    000001dc     libaoa2dproc_hwa_xwr18xx.aer4f : aoa2dprochwa.oer4f (.text:DPU_AoAProcHWA_config)
                  0000a76c    000001d8                                    : aoa2dprochwa.oer4f (.text:AoAProcHWA_XYZestimationAoA2D)
                  0000a944    0000000c     libedma_xwr18xx.aer4f : edma_low_level.oer4f (.text:EDMA3ChannelToParamMap)
                  0000a950    000001d8     sysbios.aer4ft : BIOS.obj (.text:ti_sysbios_knl_Task_Module_startup__E)
                  0000ab28    000001c8     rtsv7R4_T_le_v3D16_eabi.lib : fopen.obj (.text)
                  0000acf0    000001c8     sysbios.aer4ft : BIOS.obj (.text:ti_sysbios_knl_Task_Instance_init__E)
                  0000aeb8    000001c0     libedma_xwr18xx.aer4f : edma.oer4f (.text:EDMA_open)
                  0000b078    000001a4     objectdetection.oer4f (.text:DPC_ObjectDetection_init)
                  0000b21c    00000190     gen_frame_data.oer4f (.text:initFrameData)
                  0000b3ac    0000018c     libstaticclutterproc_xwr18xx.aer4f : staticclutterproc.oer4f (.text:DPU_StaticClutterProc_process)
                  0000b538    00000188     libcfarcaproc_hwa_xwr18xx.aer4f : cfarcaprochwa.oer4f (.text:DPU_CFARCAProcHWA_process)
                  0000b6c0    00000188     libhwa_xwr18xx.aer4f : hwa.oer4f (.text:HWA_open)
                  0000b848    00000180     libdpm_xwr18xx.aer4f : dpm_core.oer4f (.text:DPM_init)
                  0000b9c8    00000180                          : dpm_msg.oer4f (.text:DPM_msgRecv)
                  0000bb48    00000008     libdopplerproc_hwa_xwr18xx.aer4f : dopplerprochwa.oer4f (.text:DPU_DopplerProcHWA_hwaDoneIsrCallback)
                  0000bb50    0000017c     sysbios.aer4ft : BIOS.obj (.text:ti_sysbios_family_arm_exc_Exception_excHandler__I)
                  0000bccc    0000016c     libsoc_xwr18xx.aer4f : soc_xwr18xx_mss.oer4f (.text:SOC_unhaltDSS)
                  0000be38    0000016a     libaoa2dproc_hwa_xwr18xx.aer4f : aoa2dprochwa.oer4f (.text:AoAProcHWA_config_azimuthHeatMap_EDMA)
                  0000bfa2    0000000e     libosal_xwr18xx.aer4f : SemaphoreP_tirtos.oer4f (.text:SemaphoreP_delete)
                  0000bfb0    00000160     sysbios.aer4ft : BIOS.obj (.text:ti_sysbios_family_arm_v7r_vim_Hwi_reconfig__E)
                  0000c110    00000158     main.oer4f (.text:ObjectDetection_Test_reportFxn)
                  0000c268    0000014c     main.oer4f (.text:ObjectDetection_Test_convertCoordinates)
                  0000c3b4    00000148     libstaticclutterproc_xwr18xx.aer4f : staticclutterproc.oer4f (.text:DPU_StaticClutterProc_configEdma)
                  0000c4fc    00000148     libedma_xwr18xx.aer4f : edma.oer4f (.text:EDMA_setSourceAddress)
                  0000c644    00000144     objectdetection.oer4f (.text:DPC_ObjDet_dopplerConfig)
                  0000c788    00000008     libosal_xwr18xx.aer4f : HwiP_tirtos.oer4f (.text:HwiP_disable)
                  0000c790    00000144     sysbios.aer4ft : BIOS.obj (.text:ti_sysbios_timers_rti_Timer_Module_startup__E)
                  0000c8d4    0000000c     libedma_xwr18xx.aer4f : edma_low_level.oer4f (.text:EDMAsetRegion)
                  0000c8e0    00000140     sysbios.aer4ft : BIOS.obj (.text:ti_sysbios_heaps_HeapMem_Instance_init__E)
                  0000ca20    00000140                    : BIOS.obj (.text:xdc_runtime_Core_createObject__I)
                  0000cb60    0000013c                    : BIOS.obj (.text:ti_sysbios_family_arm_v7r_vim_Hwi_dispatchIRQC__I)
                  0000cc9c    00000138     rtsv7R4_T_le_v3D16_eabi.lib : fputs.obj (.text)
                  0000cdd4    00000134     libcfarcaproc_hwa_xwr18xx.aer4f : cfarcaprochwa.oer4f (.text:CFARHWA_cfarRange_AND_cfarDoppler)
                  0000cf08    00000134                                     : cfarcaprochwa.oer4f (.text:DPU_CFARCAProcHWA_config)
                  0000d03c    00000134     main.oer4f (.text:ObjectDetection_Test_DPCInit)
                  0000d170    00000134     sysbios.aer4ft : BIOS.obj (.text:xdc_runtime_Startup_startMods__I)
                  0000d2a4    00000130     libaoa2dproc_hwa_xwr18xx.aer4f : aoa2dprochwa.oer4f (.text:AoAProcHWA_PrepareRangeAzimuthHeatmap)
                  0000d3d4    0000000c     sysbios.aer4ft : arm_IntrinsicsSupport_asm.obj (.text:_ti_sysbios_family_arm_IntrinsicsSupport_maxbitA)
                  0000d3e0    00000130                    : BIOS.obj (.text:xdc_runtime_Error_policyDefault__E)
                  0000d510    0000012c     libcfarcaproc_hwa_xwr18xx.aer4f : cfarcaprochwa.oer4f (.text:HWAutil_configCFAR)
                  0000d63c    0000012c     librangeproc_hwa_xwr18xx.aer4f : rangeprochwa.oer4f (.text:rangeProcHWA_ConfigEDMADummyThreeLinks)
                  0000d768    0000012a     libaoa2dproc_hwa_xwr18xx.aer4f : aoa2dprochwa.oer4f (.text:AoAProc_configLUT)
                  0000d892    0000012a     libedma_xwr18xx.aer4f : edma.oer4f (.text:EDMA_check4kSiErrata)
                  0000d9bc    00000128     libmathutils.aer4f : mathutils.oer4f (.text:mathUtils_genWindow)
                  0000dae4    00000124     objectdetection.oer4f (.text:DPC_ObjDet_CFARCAconfig)
                  0000dc08    00000124     libedma_xwr18xx.aer4f : edma.oer4f (.text:EDMA_init)
                  0000dd2c    00000120     libtestlogger_xwr18xx.aer4f : logger.oer4f (.text:MCPI_setFeatureTestResult)
                  0000de4c    00000114     libedma_xwr18xx.aer4f : edma.oer4f (.text:EDMA_configErrorMonitoring)
                  0000df60    00000114                           : edma.oer4f (.text:EDMA_transferComplete_isr)
                  0000e074    0000010c     libdpedma_hwa_xwr18xx.aer4f : dpedma.oer4f (.text:DPEDMA_configSyncAB)
                  0000e180    0000010c     libdpm_xwr18xx.aer4f : dpm_msg.oer4f (.text:DPM_msgResultHandler)
                  0000e28c    00000004     libedma_xwr18xx.aer4f : edma.oer4f (.text:EDMA_getNumInstances)
                  0000e290    0000010c     sysbios.aer4ft : BIOS.obj (.text:xdc_runtime_Core_constructObject__I)
                  0000e39c    00000108     libmailbox_xwr18xx.aer4f : mailbox.oer4f (.text:Mailbox_write)
                  0000e4a4    00000104     libdpedma_hwa_xwr18xx.aer4f : dpedma.oer4f (.text:DPEDMA_configSyncA_singleFrame)
                  0000e5a8    00000104     libedma_xwr18xx.aer4f : edma.oer4f (.text:EDMA_configParamSet)
                  0000e6ac    00000004     libosal_xwr18xx.aer4f : HwiP_tirtos.oer4f (.text:HwiP_disableInterrupt)
                  0000e6b0    00000104     sysbios.aer4ft : BIOS.obj (.text:ti_sysbios_timers_rti_Timer_getFreq__E)
                  0000e7b4    000000f8     mss_per4ft.oer4ft (.text:xdc_runtime_System_printfExtend__I)
                  0000e8ac    000000f0     main.oer4f (.text:ObjectDetection_Test_edmaOpen)
                  0000e99c    000000f0     rtsv7R4_T_le_v3D16_eabi.lib : fread.obj (.text)
                  0000ea8c    000000ec     libaoa2dproc_hwa_xwr18xx.aer4f : aoa2dprochwa.oer4f (.text:DPU_AoAProcHWA_init)
                  0000eb78    000000ec     rtsv7R4_T_le_v3D16_eabi.lib : s_scalbn.obj (.text)
                  0000ec64    0000000c                                 : copy_zero_init.obj (.text:decompress:ZI)
                  0000ec70    000000ec     sysbios.aer4ft : BIOS.obj (.text:ti_sysbios_heaps_HeapBuf_Module_startup__E)
                  0000ed5c    000000ea     libdpedma_hwa_xwr18xx.aer4f : dpedmahwa.oer4f (.text:DPEDMAHWA_configTwoHotSignature)
                  0000ee46    00000002     mss_per4ft.oer4ft (.text:xdc_runtime_Startup_reset__I)
                  0000ee48    000000e8     libdopplerproc_hwa_xwr18xx.aer4f : dopplerprochwa.oer4f (.text:DPU_DopplerProcHWA_process)
                  0000ef30    000000e8     sysbios.aer4ft : BIOS.obj (.text:ti_sysbios_family_arm_v7r_vim_Hwi_Instance_init__E)
                  0000f018    000000e0     libcfarcaproc_hwa_xwr18xx.aer4f : cfarcaprochwa.oer4f (.text:DPU_CFARCAProcHWA_control)
                  0000f0f8    000000e0     rtsv7R4_T_le_v3D16_eabi.lib : s_floor.obj (.text)
                  0000f1d8    000000dc                                 : setvbuf.obj (.text)
                  0000f2b4    0000000c     sysbios.aer4ft : BIOS.obj (.text:ti_sysbios_family_arm_v7a_Pmu_configureCounterI__I)
                  0000f2c0    000000dc                    : BIOS.obj (.text:ti_sysbios_knl_Semaphore_post__E)
                  0000f39c    000000da     main.oer4f (.text:ObjectDetection_Test_printAndCheckResults)
                  0000f476    00000002     --HOLE-- [fill = 0]
                  0000f478    000000d4     libdopplerproc_hwa_xwr18xx.aer4f : dopplerprochwa.oer4f (.text:DPU_DopplerProcHWA_init)
                  0000f54c    000000d4     libmailbox_xwr18xx.aer4f : mailbox.oer4f (.text:Mailbox_read)
                  0000f620    000000d4     librangeproc_hwa_xwr18xx.aer4f : rangeprochwa.oer4f (.text:rangeProcHWA_ConfigEDMA_DataIn)
                  0000f6f4    000000d2     objectdetection.oer4f (.text:DPC_ObjectDetection_frameStart)
                  0000f7c6    00000002     --HOLE-- [fill = 0]
                  0000f7c8    000000d0     librangeproc_hwa_xwr18xx.aer4f : rangeprochwa.oer4f (.text:DPU_RangeProcHWA_control)
                  0000f898    000000d0     sysbios.aer4ft : exc_Exception_asm.obj (.text:ti_sysbios_family_arm_exc_Exception_excHandlerAsm__I)
                  0000f968    000000cc     objectdetection.oer4f (.text:DPC_ObjDet_staticClutterConfig)
                  0000fa34    000000cc     libhwa_xwr18xx.aer4f : hwa.oer4f (.text:HWA_enableParamSetInterrupt)
                  0000fb00    000000cc     rtsv7R4_T_le_v3D16_eabi.lib : fflush.obj (.text)
                  0000fbcc    00000004     libosal_xwr18xx.aer4f : HwiP_tirtos.oer4f (.text:HwiP_enableInterrupt)
                  0000fbd0    000000cc     sysbios.aer4ft : BIOS.obj (.text:ti_sysbios_knl_Task_checkStacks__E)
                  0000fc9c    000000ca     libdpedma_hwa_xwr18xx.aer4f : dpedmahwa.oer4f (.text:DPEDMAHWA_configOneHotSignature)
                  0000fd66    000000c4     libaoa2dproc_hwa_xwr18xx.aer4f : aoa2dprochwa.oer4f (.text:AoAProcHWA_SelectMaxPeaks)
                  0000fe2a    00000002     --HOLE-- [fill = 0]
                  0000fe2c    000000c4     libdpm_xwr18xx.aer4f : dpm_core.oer4f (.text:DPM_deinit)
                  0000fef0    000000c4                          : dpm_core.oer4f (.text:DPM_ioctl)
                  0000ffb4    0000000c     sysbios.aer4ft : BIOS.obj (.text:ti_sysbios_family_arm_v7a_Pmu_getCountI__E)
                  0000ffc0    000000c4                    : BIOS.obj (.text:ti_sysbios_family_arm_v7a_Pmu_configureCounter__E)
                  00010084    0000000c     mss_per4ft.oer4ft (.text:ti_sysbios_knl_Queue_Object__get__S)
                  00010090    000000c4     sysbios.aer4ft : BIOS.obj (.text:ti_sysbios_family_arm_v7r_vim_Hwi_Module_startup__E)
                  00010154    0000000a     objectdetection.oer4f (.text:DPC_ObjDet_GetRangeWinGenLen)
                  0001015e    00000002     --HOLE-- [fill = 0]
                  00010160    000000c4     sysbios.aer4ft : BIOS.obj (.text:ti_sysbios_knl_Task_postInit__I)
                  00010224    000000c0     objectdetection.oer4f (.text:DPC_ObjectDetection_start)
                  000102e4    000000c0     librangeproc_hwa_xwr18xx.aer4f : rangeprochwa.oer4f (.text:DPU_RangeProcHWA_init)
                  000103a4    0000000a     libdpm_xwr18xx.aer4f : dpm_core.oer4f (.text:DPM_chirpISR)
                  000103ae    00000002     --HOLE-- [fill = 0]
                  000103b0    000000c0     sysbios.aer4ft : BIOS.obj (.text:ti_sysbios_timers_rti_Timer_startup__E)
                  00010470    000000bc     rtsv7R4_T_le_v3D16_eabi.lib : open.obj (.text)
                  0001052c    000000b8     gen_frame_data.oer4f (.text:GaussianNoise)
                  000105e4    000000b8     rtsv7R4_T_le_v3D16_eabi.lib : k_cos.obj (.text)
                  0001069c    000000b6     libsoc_xwr18xx.aer4f : soc_mpu.o (.text)
                  00010752    00000002     --HOLE-- [fill = 0]
                  00010754    000000b4     libedma_xwr18xx.aer4f : edma.oer4f (.text:EDMA_startTransfer)
                  00010808    000000b4     main.oer4f (.text:ObjectDetection_Test_dpmTask)
                  000108bc    00000004     libsoc_xwr18xx.aer4f : soc_xwr18xx.oer4f (.text:SOC_ungateClock)
                  000108c0    000000b4     sysbios.aer4ft : BIOS.obj (.text:ti_sysbios_gates_GateMutex_enter__E)
                  00010974    0000000a     libdpm_xwr18xx.aer4f : dpm_core.oer4f (.text:DPM_frameStartISR)
                  0001097e    00000002     --HOLE-- [fill = 0]
                  00010980    000000b0     sysbios.aer4ft : BIOS.obj (.text:ti_sysbios_knl_Swi_restoreHwi__E)
                  00010a30    000000b0                    : BIOS.obj (.text:ti_sysbios_knl_Task_exit__E)
                  00010ae0    000000b0                    : BIOS.obj (.text:xdc_runtime_Text_putMod__E)
                  00010b90    000000ae     rtsv7R4_T_le_v3D16_eabi.lib : _io_perm.obj (.text)
                  00010c3e    00000002     --HOLE-- [fill = 0]
                  00010c40    000000ac     libaoa2dproc_hwa_xwr18xx.aer4f : aoa2dprochwa.oer4f (.text:AoAProcHWA_ConvertFov)
                  00010cec    000000ac                                    : aoa2dprochwa.oer4f (.text:AoAProcHWA_rxChanPhaseBiasCompensation)
                  00010d98    000000ac     libesm_xwr18xx.aer4f : esm.oer4f (.text:ESM_processInterrupt)
                  00010e44    000000ac     main.oer4f (.text:main)
                  00010ef0    000000a8     libedma_xwr18xx.aer4f : edma_low_level.oer4f (.text:EDMA3Init)
                  00010f98    000000a8     libsoc_xwr18xx.aer4f : soc.oer4f (.text:SOC_deregisterSysIntListener)
                  00011040    000000a4     libesm_xwr18xx.aer4f : esm.oer4f (.text:ESM_init)
                  000110e4    000000a4     rtsv7R4_T_le_v3D16_eabi.lib : k_sin.obj (.text)
                  00011188    00000008     libosal_xwr18xx.aer4f : MemoryP_tirtos.oer4f (.text:MemoryP_getStats)
                  00011190    000000a2     sysbios.aer4ft : BIOS.obj (.text:xdc_runtime_Text_putSite__E)
                  00011232    00000002     --HOLE-- [fill = 0]
                  00011234    000000a0     main.oer4f (.text:ObjectDetection_Test_trigFrameStart)
                  000112d4    000000a0     libsoc_xwr18xx.aer4f : soc.oer4f (.text:SOC_registerSysIntListener)
                  00011374    000000a0     auto_init.aer4ft : auto_init.oer4ft (.text)
                  00011414    0000009c     rtsv7R4_T_le_v3D16_eabi.lib : _bufread.obj (.text)
                  000114b0    0000009c                                 : memcpy_t2.obj (.text)
                  0001154c    00000004     mss_per4ft.oer4ft (.text:ti_sysbios_BIOS_RtsGateProxy_enter__E)
                  00011550    0000009c     sysbios.aer4ft : BIOS.obj (.text:ti_sysbios_family_arm_v7r_vim_Hwi_initIntController__I)
                  000115ec    00000004     mss_per4ft.oer4ft (.text:ti_sysbios_BIOS_RtsGateProxy_leave__E)
                  000115f0    0000009c     sysbios.aer4ft : BIOS.obj (.text:ti_sysbios_family_arm_v7r_vim_Hwi_mapChannel__I)
                  0001168c    00000004     mss_per4ft.oer4ft (.text:ti_sysbios_family_arm_TaskSupport_Module__startupDone__S)
                  00011690    0000009c     sysbios.aer4ft : BIOS.obj (.text:ti_sysbios_knl_Semaphore_Instance_init__E)
                  0001172c    00000004     mss_per4ft.oer4ft (.text:ti_sysbios_family_arm_v7r_vim_Hwi_delete)
                  00011730    0000009c     sysbios.aer4ft : BIOS.obj (.text:ti_sysbios_knl_Swi_runLoop__I)
                  000117cc    0000009a     libdpm_xwr18xx.aer4f : dpm_msg.oer4f (.text:DPM_msgResponseHandler)
                  00011866    00000002     --HOLE-- [fill = 0]
                  00011868    00000098     libaoa2dproc_hwa_xwr18xx.aer4f : aoa2dprochwa.oer4f (.text:DPU_AoAProcHWA_control)
                  00011900    00000098     rtsv7R4_T_le_v3D16_eabi.lib : fclose.obj (.text)
                  00011998    00000098                                 : fputc.obj (.text)
                  00011a30    00000098     sysbios.aer4ft : vim_Hwi_asm_switch.obj (.text)
                  00011ac8    00000096     libedma_xwr18xx.aer4f : edma.oer4f (.text:EDMA_getErrorStatusInfo)
                  00011b5e    00000096     libhwa_xwr18xx.aer4f : hwa.oer4f (.text:HWA_configRam)
                  00011bf4    00000094     main.oer4f (.text:ObjectDetection_Test_DPCDeinit)
                  00011c88    00000094     rtsv7R4_T_le_v3D16_eabi.lib : snprintf.obj (.text)
                  00011d1c    00000094     sysbios.aer4ft : vim_Hwi_asm.obj (.text:ti_sysbios_family_arm_v7r_vim_Hwi_dispatchIRQ__I)
                  00011db0    00000090     libmailbox_xwr18xx.aer4f : mailbox.oer4f (.text:Mailbox_close)
                  00011e40    00000090     sysbios.aer4ft : BIOS.obj (.text:ti_sysbios_family_arm_v7a_Pmu_startCounter__E)
                  00011ed0    0000008c     main.oer4f (.text:ObjectDetection_Test_startDPC)
                  00011f5c    0000008c     main.oer4f (.text:ObjectDetection_Test_stopDPC)
                  00011fe8    0000008c     libsoc_xwr18xx.aer4f : soc.oer4f (.text:SOC_init)
                  00012074    0000008c                          : soc_xwr18xx.oer4f (.text:SOC_translateAddress)
                  00012100    0000008c     sysbios.aer4ft : BIOS.obj (.text:ti_sysbios_family_arm_v7a_Pmu_getCount__E)
                  0001218c    00000004     mss_per4ft.oer4ft (.text:ti_sysbios_heaps_HeapMem_Module_GateProxy_enter__E)
                  00012190    0000008c     sysbios.aer4ft : BIOS.obj (.text:ti_sysbios_family_arm_v7r_vim_Hwi_Instance_finalize__E)
                  0001221c    00000004     mss_per4ft.oer4ft (.text:ti_sysbios_heaps_HeapMem_Module_GateProxy_leave__E)
                  00012220    0000008c     sysbios.aer4ft : BIOS.obj (.text:xdc_runtime_Memory_alloc__E)
                  000122ac    00000088     libhwa_xwr18xx.aer4f : hwa.oer4f (.text:HWA_disableParamSetInterrupt)
                  00012334    00000086     libaoa2dproc_hwa_xwr18xx.aer4f : aoa2dprochwa.oer4f (.text:AoAProcHWA_cfgAndTrigger_EDMA_2DFFT)
                  000123ba    00000002     --HOLE-- [fill = 0]
                  000123bc    00000084     libcfarcaproc_hwa_xwr18xx.aer4f : cfarcaprochwa.oer4f (.text:DPU_CFARCAProcHWA_init)
                  00012440    00000082     libhwa_xwr18xx.aer4f : hwa.oer4f (.text:HWA_paramDoneISR)
                  000124c2    00000002     --HOLE-- [fill = 0]
                  000124c4    00000080     libdpm_xwr18xx.aer4f : dpm_mailbox.oer4f (.text:DPM_mboxRemoteMailboxCallbackFxn)
                  00012544    0000000a     libosal_xwr18xx.aer4f : MemoryP_tirtos.oer4f (.text:MemoryP_ctrlFree)
                  0001254e    00000002     --HOLE-- [fill = 0]
                  00012550    00000080     sysbios.aer4ft : BIOS.obj (.text:ti_sysbios_timers_rti_Timer_initDevice__I)
                  000125d0    0000007e     objectdetection.oer4f (.text:DPC_ObjDet_GetRxChPhaseComp)
                  0001264e    00000002     --HOLE-- [fill = 0]
                  00012650    0000007e     libosal_xwr18xx.aer4f : HwiP_tirtos.oer4f (.text:HwiP_create)
                  000126ce    00000002     --HOLE-- [fill = 0]
                  000126d0    0000007c     libdpm_xwr18xx.aer4f : dpm_pipe.oer4f (.text:DPM_pipeSend)
                  0001274c    0000007c     libedma_xwr18xx.aer4f : edma.oer4f (.text:EDMA_clearErrors)
                  000127c8    0000007c     sysbios.aer4ft : arm_TaskSupport_asm.obj (.text:_ti_sysbios_family_arm_TaskSupport_buildTaskStack)
                  00012844    0000000a     libosal_xwr18xx.aer4f : SemaphoreP_tirtos.oer4f (.text:SemaphoreP_post)
                  0001284e    00000002     --HOLE-- [fill = 0]
                  00012850    0000007c     sysbios.aer4ft : BIOS.obj (.text:ti_sysbios_knl_Clock_workFunc__E)
                  000128cc    00000004     mss_per4ft.oer4ft (.text:ti_sysbios_knl_Clock_TimerProxy_getMaxTicks__E)
                  000128d0    0000007c     sysbios.aer4ft : BIOS.obj (.text:ti_sysbios_timers_rti_Timer_setPeriodMicroSecs__E)
                  0001294c    00000004     mss_per4ft.oer4ft (.text:ti_sysbios_knl_Semaphore_delete)
                  00012950    0000007c     sysbios.aer4ft : BIOS.obj (.text:xdc_runtime_Core_deleteObject__I)
                  000129cc    0000007a     rtsv7R4_T_le_v3D16_eabi.lib : memset_t2.obj (.text)
                  00012a46    00000074     objectdetection.oer4f (.text:DPC_ObjDet_reconfigSubFrame)
                  00012aba    00000002     --HOLE-- [fill = 0]
                  00012abc    00000074     libedma_xwr18xx.aer4f : edma.oer4f (.text:EDMA_isTransferComplete)
                  00012b30    00000074     boot.aer4ft : boot.oer4ft (.text)
                  00012ba4    00000074     rtsv7R4_T_le_v3D16_eabi.lib : getdevice.obj (.text)
                  00012c18    00000074                                 : s_frexp.obj (.text)
                  00012c8c    00000072     libcfarcaproc_hwa_xwr18xx.aer4f : cfarcaprochwa.oer4f (.text:CFARHWA_saveConfiguration)
                  00012cfe    00000002     --HOLE-- [fill = 0]
                  00012d00    00000070     libedma_xwr18xx.aer4f : edma.oer4f (.text:EDMA_error_isr)
                  00012d70    00000070     libhwa_xwr18xx.aer4f : hwa.oer4f (.text:HWA_close)
                  00012de0    00000070                          : hwa.oer4f (.text:HWA_getDriverAccess)
                  00012e50    00000070     rtsv7R4_T_le_v3D16_eabi.lib : printf.obj (.text)
                  00012ec0    00000070     sysbios.aer4ft : BIOS.obj (.text:xdc_runtime_Error_print__E)
                  00012f30    00000070                    : BIOS.obj (.text:xdc_runtime_Text_visitRope2__I)
                  00012fa0    0000006f     objectdetection.oer4f (.text:DPC_ObjectDetection_stop)
                  0001300f    00000001     --HOLE-- [fill = 0]
                  00013010    0000006e     libcfarcaproc_hwa_xwr18xx.aer4f : cfarcaprochwa.oer4f (.text:CFARCAHWA_config_EDMA)
                  0001307e    0000006c     rtsv7R4_T_le_v3D16_eabi.lib : copy_decompress_lzss.obj (.text:decompress:lzss)
                  000130ea    00000002     --HOLE-- [fill = 0]
                  000130ec    0000006c                                 : trgmsg.obj (.text)
                  00013158    00000068     objectdetection.oer4f (.text:DPC_ObjectDetection_deinit)
                  000131c0    00000068     libdpm_xwr18xx.aer4f : dpm_msg.oer4f (.text:DPM_msgDPCCfgHandler)
                  00013228    00000068     libmailbox_xwr18xx.aer4f : mailbox.oer4f (.text:Mailbox_readFlush)
                  00013290    00000068     librangeproc_hwa_xwr18xx.aer4f : rangeprochwa.oer4f (.text:rangeProcHWA_ConfigEDMATranspose)
                  000132f8    00000068                                    : rangeprochwa.oer4f (.text:rangeProcHWA_ConfigHWACommon)
                  00013360    00000068     rtsv7R4_T_le_v3D16_eabi.lib : hostlseek.obj (.text)
                  000133c8    00000068                                 : hostrename.obj (.text)
                  00013430    00000064     libedma_xwr18xx.aer4f : edma.oer4f (.text:EDMA_getTransferControllerErrorStatusInfo)
                  00013494    00000064                           : edma.oer4f (.text:EDMA_startDmaTransfer)
                  000134f8    00000064     libhwa_xwr18xx.aer4f : hwa.oer4f (.text:HWA_getDMAChanIndex)
                  0001355c    00000064     main.oer4f (.text:ObjectDetection_Test_edmaInit)
                  000135c0    00000064     libosal_xwr18xx.aer4f : SemaphoreP_tirtos.oer4f (.text:SemaphoreP_create)
                  00013624    00000064     rtsv7R4_T_le_v3D16_eabi.lib : fseek.obj (.text)
                  00013688    00000064                                 : sprintf.obj (.text)
                  000136ec    00000064     sysbios.aer4ft : exc_Exception_asm.obj (.text:ti_sysbios_family_arm_exc_Exception_initCore0__I)
                  00013750    00000064                    : BIOS.obj (.text:ti_sysbios_family_arm_v7r_vim_Hwi_phantomIntHandler__I)
                  000137b4    0000000a     libmathutils.aer4f : mathutils.oer4f (.text:mathUtils_floorLog2)
                  000137be    00000002     --HOLE-- [fill = 0]
                  000137c0    00000064     sysbios.aer4ft : BIOS.obj (.text:ti_sysbios_knl_Task_schedule__I)
                  00013824    0000000a                    : tms570_Core_asm.obj (.text:ti_sysbios_family_arm_v7r_tms570_Core_getId__E)
                  0001382e    00000002     --HOLE-- [fill = 0]
                  00013830    00000064                    : BIOS.obj (.text:xdc_runtime_Startup_exec__E)
                  00013894    00000060     libosal_xwr18xx.aer4f : DebugP_tirtos.oer4f (.text:DebugP_log2)
                  000138f4    00000060     libedma_xwr18xx.aer4f : edma.oer4f (.text:EDMA_close)
                  00013954    0000000a     mss_per4ft.oer4ft (.text:xdc_runtime_IHeap_alloc)
                  0001395e    00000002     --HOLE-- [fill = 0]
                  00013960    00000060     sysbios.aer4ft : BIOS.obj (.text:ti_sysbios_heaps_HeapMem_alloc__E)
                  000139c0    00000060                    : BIOS.obj (.text:xdc_runtime_Assert_raise__I)
                  00013a20    0000005f                    : BIOS.obj (.text:xdc_runtime_Text_putLab__E)
                  00013a7f    00000001     --HOLE-- [fill = 0]
                  00013a80    0000005c     libcfarcaproc_hwa_xwr18xx.aer4f : cfarcaprochwa.oer4f (.text:CFARHWA_fovConvertDoppler)
                  00013adc    0000005c                                     : cfarcaprochwa.oer4f (.text:CFARHWA_prepareHwaRunTime)
                  00013b38    0000005c     rtsv7R4_T_le_v3D16_eabi.lib : hostopen.obj (.text)
                  00013b94    0000005c                                 : hostread.obj (.text)
                  00013bf0    0000005c     sysbios.aer4ft : BIOS.obj (.text:ti_sysbios_knl_Swi_schedule__I)
                  00013c4c    00000058     libdpm_xwr18xx.aer4f : dpm_core.oer4f (.text:DPM_execute)
                  00013ca4    00000058                          : dpm_mailbox.oer4f (.text:DPM_mboxInit)
                  00013cfc    00000058     libosal_xwr18xx.aer4f : DebugP_tirtos.oer4f (.text:DebugP_log0)
                  00013d54    00000058                           : DebugP_tirtos.oer4f (.text:DebugP_log1)
                  00013dac    00000058     libedma_xwr18xx.aer4f : edma_low_level.oer4f (.text:EDMA3EnableChInShadowReg)
                  00013e04    00000058     libesm_xwr18xx.aer4f : esm.oer4f (.text:ESM_highpriority_FIQ)
                  00013e5c    00000058     libhwa_xwr18xx.aer4f : hwa.oer4f (.text:HWA_getDMAconfig)
                  00013eb4    00000058     main.oer4f (.text:ObjectDetection_Test_hwaOpen)
                  00013f0c    00000058     rtsv7R4_T_le_v3D16_eabi.lib : close.obj (.text)
                  00013f64    00000058                                 : hostwrite.obj (.text)
                  00013fbc    00000056     libaoa2dproc_hwa_xwr18xx.aer4f : aoa2dprochwa.oer4f (.text:AoAProcHWA_config_HWA_common)
                  00014012    00000056     libedma_xwr18xx.aer4f : edma.oer4f (.text:EDMA_check4kSiErrata_boundaryCheckUtilType1)
                  00014068    00000054     main.oer4f (.text:ObjectDetection_Test_setCommonProfile)
                  000140bc    00000054     rtsv7R4_T_le_v3D16_eabi.lib : ltoa.obj (.text)
                  00014110    00000054     mss_per4ft.oer4ft (.text:ti_sysbios_family_arm_v7r_vim_Hwi_create)
                  00014164    0000000a     mss_per4ft.oer4ft (.text:xdc_runtime_IHeap_free)
                  0001416e    00000002     --HOLE-- [fill = 0]
                  00014170    00000054     sysbios.aer4ft : BIOS.obj (.text:ti_sysbios_heaps_HeapMem_getStats__E)
                  000141c4    0000000a     mss_per4ft.oer4ft (.text:xdc_runtime_IHeap_getStats)
                  000141ce    00000002     --HOLE-- [fill = 0]
                  000141d0    00000054     sysbios.aer4ft : BIOS.obj (.text:ti_sysbios_knl_Task_startCore__E)
                  00014224    00000008     libosal_xwr18xx.aer4f : SemaphoreP_tirtos.oer4f (.text:SemaphoreP_Params_init)
                  0001422c    00000004     mss_per4ft.oer4ft (.text:xdc_runtime_System_Module_GateProxy_enter__E)
                  00014230    00000054     sysbios.aer4ft : BIOS.obj (.text:xdc_runtime_Core_assignLabel__I)
                  00014284    00000052     libdpedma_hwa_xwr18xx.aer4f : dpedma.oer4f (.text:DPEDMA_setup_shadow_link)
                  000142d6    00000050     libedma_xwr18xx.aer4f : edma_low_level.oer4f (.text:EDMA3MapChToEvtQ)
                  00014326    00000002     --HOLE-- [fill = 0]
                  00014328    00000050     main.oer4f (.text:ObjectDetection_Test_hwaClose)
                  00014378    00000050     rtsv7R4_T_le_v3D16_eabi.lib : atoi.obj (.text)
                  000143c8    00000050                                 : exit.obj (.text)
                  00014418    00000050                                 : u_div32.obj (.text)
                  00014468    00000008     librangeproc_hwa_xwr18xx.aer4f : rangeprochwa.oer4f (.text:rangeProcHWADoneIsrCallback)
                  00014470    00000050     sysbios.aer4ft : BIOS.obj (.text:xdc_runtime_System_exit__E)
                  000144c0    0000004c     libaoa2dproc_hwa_xwr18xx.aer4f : aoa2dprochwa.oer4f (.text:AoAProcHWA_findSinglePeak)
                  0001450c    0000004c     libstaticclutterproc_xwr18xx.aer4f : staticclutterproc.oer4f (.text:DPU_StaticClutterProc_config)
                  00014558    0000004c     libedma_xwr18xx.aer4f : edma.oer4f (.text:EDMA_disableChannel)
                  000145a4    0000004c                           : edma.oer4f (.text:EDMA_enableChannel)
                  000145f0    0000004c     libhwa_xwr18xx.aer4f : hwa.oer4f (.text:HWA_enableDoneInterrupt)
                  0001463c    0000004c     libmailbox_xwr18xx.aer4f : mailbox.oer4f (.text:Mailbox_boxEmptyISRProcessing)
                  00014688    0000004c     rtsv7R4_T_le_v3D16_eabi.lib : cpy_tbl.obj (.text)
                  000146d4    00000008     sysbios.aer4ft : BIOS.obj (.text:ti_sysbios_family_arm_v7a_Pmu_getEnabled__E)
                  000146dc    00000004     mss_per4ft.oer4ft (.text:xdc_runtime_System_Module_GateProxy_leave__E)
                  000146e0    0000004c     sysbios.aer4ft : BIOS.obj (.text:ti_sysbios_family_arm_v7r_vim_Hwi_getStackInfo__E)
                  0001472c    0000004c     mss_per4ft.oer4ft (.text:ti_sysbios_knl_Task_create)
                  00014778    0000004a     libdpm_xwr18xx.aer4f : dpm_mailbox.oer4f (.text:DPM_mboxSendResult)
                  000147c2    0000004a     libmailbox_xwr18xx.aer4f : mailbox.oer4f (.text:Mailbox_boxFullISRProcessing)
                  0001480c    00000004     --HOLE-- [fill = 0]
                  00014810    0000004a     sysbios.aer4ft : BIOS.obj (.text:xdc_runtime_Core_assignParams__I)
                  0001485a    00000006     libosal_xwr18xx.aer4f : CycleprofilerP_tirtos.oer4f (.text:CycleprofilerP_getTimeStamp)
                  00014860    0000004a     sysbios.aer4ft : BIOS.obj (.text:xdc_runtime_Text_xprintf__I)
                  000148aa    00000048     libcfarcaproc_hwa_xwr18xx.aer4f : cfarcaprochwa.oer4f (.text:CFARHWA_convHwaCfarDetListToDetMask)
                  000148f2    00000048     libdpm_xwr18xx.aer4f : dpm_pipe.oer4f (.text:DPM_pipeRecv)
                  0001493a    00000002     --HOLE-- [fill = 0]
                  0001493c    00000048     libhwa_xwr18xx.aer4f : hwa.oer4f (.text:HWA_deleteInstance)
                  00014984    00000048                          : hwa.oer4f (.text:HWA_readCFARPeakCountReg)
                  000149cc    00000048     main.oer4f (.text:ObjectDetection_Test_EDMA_errorCallbackFxn)
                  00014a14    00000048     main.oer4f (.text:ObjectDetection_Test_EDMA_transferControllerErrorCallbackFxn)
                  00014a5c    00000046     libmailbox_xwr18xx.aer4f : mailbox.oer4f (.text:CSL_FINSR)
                  00014aa2    00000002     --HOLE-- [fill = 0]
                  00014aa4    00000044     libdpm_xwr18xx.aer4f : dpm_core.oer4f (.text:DPM_start)
                  00014ae8    00000044                          : dpm_core.oer4f (.text:DPM_stop)
                  00014b2c    00000044     libedma_xwr18xx.aer4f : edma.oer4f (.text:EDMA_linkParamSets)
                  00014b70    00000044     libmailbox_xwr18xx.aer4f : mailbox.oer4f (.text:Mailbox_boxFullISRMssDss)
                  00014bb4    00000044     libsoc_xwr18xx.aer4f : soc_xwr18xx_mss.oer4f (.text:SOC_resetDMA)
                  00014bf8    00000044     rtsv7R4_T_le_v3D16_eabi.lib : hostclose.obj (.text)
                  00014c3c    00000044                                 : hostunlink.obj (.text)
                  00014c80    00000044     sysbios.aer4ft : BIOS.obj (.text:ti_sysbios_family_arm_v7r_tms570_Core_Module_startup__E)
                  00014cc4    00000006     libdpm_xwr18xx.aer4f : dpm_mailbox.oer4f (.text:DPM_mboxSynch)
                  00014cca    00000006     libedma_xwr18xx.aer4f : edma_low_level.oer4f (.text:EDMA3ClrCCErr)
                  00014cd0    00000044     sysbios.aer4ft : BIOS.obj (.text:ti_sysbios_knl_Task_allBlockedFunction__I)
                  00014d14    00000006     libedma_xwr18xx.aer4f : edma_low_level.oer4f (.text:EDMA3ErrIntrHighStatusGet)
                  00014d1a    00000006                           : edma_low_level.oer4f (.text:EDMA3GetCCErrStatus)
                  00014d20    00000044     sysbios.aer4ft : BIOS.obj (.text:xdc_runtime_System_atexit__E)
                  00014d64    00000042     libedma_xwr18xx.aer4f : edma.oer4f (.text:EDMA_transferController_error_isr)
                  00014da6    00000042     libhwa_xwr18xx.aer4f : hwa.oer4f (.text:HWA_reset)
                  00014de8    00000040     objectdetection.oer4f (.text:DPC_ObjDet_GetAntGeometryDef)
                  00014e28    00000040     libhwa_xwr18xx.aer4f : hwa.oer4f (.text:HWA_getHWAMemInfo)
                  00014e68    00000040     main.oer4f (.text:ObjectDetection_Test_initComponents)
                  00014ea8    00000006     libedma_xwr18xx.aer4f : edma_low_level.oer4f (.text:EDMA3GetErrIntrStatus)
                  00014eae    00000002     --HOLE-- [fill = 0]
                  00014eb0    00000040     sysbios.aer4ft : BIOS.obj (.text:ti_sysbios_family_arm_v7r_vim_Hwi_setType__E)
                  00014ef0    00000040                    : BIOS.obj (.text:ti_sysbios_knl_Swi_post__E)
                  00014f30    00000040                    : BIOS.obj (.text:ti_sysbios_timers_rti_Timer_stop__E)
                  00014f70    0000003e     libhwa_xwr18xx.aer4f : hwa.oer4f (.text:CSL_FINSR)
                  00014fae    0000003e     libsoc_xwr18xx.aer4f : soc.oer4f (.text:CSL_FINSR)
                  00014fec    0000003e                          : soc_xwr18xx.oer4f (.text:CSL_FINSR)
                  0001502a    0000003e                          : soc_xwr18xx_mss.oer4f (.text:CSL_FINSR)
                  00015068    0000003e     libdpm_xwr18xx.aer4f : dpm_msg.oer4f (.text:DPM_msgStopHandler)
                  000150a6    0000003e     libhwa_xwr18xx.aer4f : hwa.oer4f (.text:HWA_enable)
                  000150e4    0000003c     libsoc_xwr18xx.aer4f : soc.oer4f (.text:SOC_unhaltBSS)
                  00015120    0000003c     sysbios.aer4ft : vim_Hwi_asm.obj (.text:ti_sysbios_family_arm_v7r_vim_Hwi_init__I)
                  0001515c    00000004     --HOLE-- [fill = 0]
                  00015160    0000003c                    : BIOS.obj (.text:ti_sysbios_hal_Hwi_checkStack)
                  0001519c    00000004     --HOLE-- [fill = 0]
                  000151a0    0000003c                    : BIOS.obj (.text:ti_sysbios_heaps_HeapMem_init__I)
                  000151dc    00000004     --HOLE-- [fill = 0]
                  000151e0    0000003c                    : BIOS.obj (.text:ti_sysbios_knl_Swi_startup__E)
                  0001521c    00000004     --HOLE-- [fill = 0]
                  00015220    0000003c                    : BIOS.obj (.text:ti_sysbios_timers_rti_Timer_setPeriod__E)
                  0001525c    0000003a     libhwa_xwr18xx.aer4f : hwa.oer4f (.text:HWA_setDMA2ACCManualTrig)
                  00015296    00000002     --HOLE-- [fill = 0]
                  00015298    0000003a     libosal_xwr18xx.aer4f : HwiP_tirtos.oer4f (.text:HwiP_delete)
                  000152d2    00000002     --HOLE-- [fill = 0]
                  000152d4    00000038     libdpm_xwr18xx.aer4f : dpm_core.oer4f (.text:DPM_notifyExecute)
                  0001530c    00000038     libedma_xwr18xx.aer4f : edma_low_level.oer4f (.text:EDMA3ClrMissEvt)
                  00015344    00000006                           : edma_low_level.oer4f (.text:EDMA3QdmaGetErrIntrStatus)
                  0001534a    00000006     libosal_xwr18xx.aer4f : HwiP_tirtos.oer4f (.text:HwiP_restore)
                  00015350    00000038     sysbios.aer4ft : BIOS.obj (.text:ti_sysbios_knl_Task_sleepTimeout__I)
                  00015388    00000036     rtsv7R4_T_le_v3D16_eabi.lib : strncpy.obj (.text)
                  000153be    00000034     libedma_xwr18xx.aer4f : edma.oer4f (.text:EDMA_configTransferControllerError)
                  000153f2    00000002     --HOLE-- [fill = 0]
                  000153f4    00000034     libhwa_xwr18xx.aer4f : hwa.oer4f (.text:HWA_disableDoneInterrupt)
                  00015428    00000034     libsoc_xwr18xx.aer4f : soc_xwr18xx.oer4f (.text:SOC_enableHWA)
                  0001545c    00000034                          : soc_xwr18xx.oer4f (.text:SOC_setMSSLinkState)
                  00015490    00000034     mss_per4ft.oer4ft (.text:ti_sysbios_knl_Semaphore_create)
                  000154c4    0000000c     --HOLE-- [fill = 0]
                  000154d0    00000034     sysbios.aer4ft : BIOS.obj (.text:ti_sysbios_knl_Task_processVitalTaskFlag__I)
                  00015504    00000032     libcfarcaproc_hwa_xwr18xx.aer4f : cfarcaprochwa.oer4f (.text:CFARHWA_fovConvertRange)
                  00015536    00000032     libedma_xwr18xx.aer4f : edma.oer4f (.text:EDMA_configQueueThreshold)
                  00015568    00000032     libhwa_xwr18xx.aer4f : hwa.oer4f (.text:HWA_allParamDoneISR)
                  0001559a    00000006     --HOLE-- [fill = 0]
                  000155a0    00000032     sysbios.aer4ft : BIOS.obj (.text:ti_sysbios_hal_Hwi_initStack)
                  000155d2    00000002     --HOLE-- [fill = 0]
                  000155d4    00000030     libedma_xwr18xx.aer4f : edma.oer4f (.text:EDMA_setDestinationAddress)
                  00015604    00000030     gen_frame_data.oer4f (.text:RandSimple)
                  00015634    00000030     mss_per4ft.oer4ft (.text:ti_sysbios_BIOS_atExitFunc__I)
                  00015664    00000030     mss_per4ft.oer4ft (.text:ti_sysbios_BIOS_startFunc__I)
                  00015694    0000000c     --HOLE-- [fill = 0]
                  000156a0    00000030     sysbios.aer4ft : BIOS.obj (.text:ti_sysbios_family_arm_TaskSupport_start__E)
                  000156d0    00000030     mss_per4ft.oer4ft (.text:ti_sysbios_gates_GateHwi_Object__create__S)
                  00015700    00000030     mss_per4ft.oer4ft (.text:ti_sysbios_gates_GateMutex_Object__create__S)
                  00015730    00000030     mss_per4ft.oer4ft (.text:ti_sysbios_heaps_HeapMem_Object__create__S)
                  00015760    00000030     sysbios.aer4ft : BIOS.obj (.text:ti_sysbios_heaps_HeapMem_free__E)
                  00015790    00000030     mss_per4ft.oer4ft (.text:ti_sysbios_knl_Semaphore_construct)
                  000157c0    0000002f     sysbios.aer4ft : BIOS.obj (.text:xdc_runtime_Text_printVisFxn__I)
                  000157ef    00000001     --HOLE-- [fill = 0]
                  000157f0    0000002e     libcfarcaproc_hwa_xwr18xx.aer4f : cfarcaprochwa.oer4f (.text:CFARHWA_triggerCFAR)
                  0001581e    0000002e     libdpm_xwr18xx.aer4f : dpm_msg.oer4f (.text:DPM_msgStartHandler)
                  0001584c    0000002e     libhwa_xwr18xx.aer4f : hwa.oer4f (.text:HWA_getCfarPeakCntRegAddress)
                  0001587a    0000002e     objectdetection.oer4f (.text:_DPC_Objdet_Assert)
                  000158a8    0000002e     mss_per4ft.oer4ft (.text:ti_sysbios_rts_MemAlloc_alloc)
                  000158d6    0000002c     libdpm_xwr18xx.aer4f : dpm_pipe.oer4f (.text:DPM_pipeInit)
                  00015902    00000002     --HOLE-- [fill = 0]
                  00015904    0000002c     libstaticclutterproc_xwr18xx.aer4f : staticclutterproc.oer4f (.text:DPU_StaticClutterProc_init)
                  00015930    0000002c     libedma_xwr18xx.aer4f : edma.oer4f (.text:EDMA_validate_channelIdchannelType)
                  0001595c    0000002c     rtsv7R4_T_le_v3D16_eabi.lib : e_sqrt.obj (.text)
                  00015988    0000002c                                 : unlink.obj (.text)
                  000159b4    0000002c     mss_per4ft.oer4ft (.text:ti_sysbios_knl_Clock_doTick__I)
                  000159e0    0000002c     mss_per4ft.oer4ft (.text:ti_sysbios_knl_Queue_construct)
                  00015a0c    00000004     --HOLE-- [fill = 0]
                  00015a10    0000002c     sysbios.aer4ft : BIOS.obj (.text:ti_sysbios_knl_Semaphore_pendTimeout__I)
                  00015a3c    00000004     --HOLE-- [fill = 0]
                  00015a40    0000002c                    : BIOS.obj (.text:ti_sysbios_knl_Swi_Module_startup__E)
                  00015a6c    00000004     --HOLE-- [fill = 0]
                  00015a70    0000002c                    : BIOS.obj (.text:ti_sysbios_knl_Task_unblockI__E)
                  00015a9c    00000004     --HOLE-- [fill = 0]
                  00015aa0    0000002c                    : BIOS.obj (.text:ti_sysbios_timers_rti_Timer_periodicStub__E)
                  00015acc    0000002a     objectdetection.oer4f (.text:DPC_ObjDet_MemPoolAlloc)
                  00015af6    0000002a     libdpm_xwr18xx.aer4f : dpm_pipe.oer4f (.text:DPM_pipeDeinit)
                  00015b20    0000002a     libsoc_xwr18xx.aer4f : soc.oer4f (.text:SOC_SystemISR)
                  00015b4a    00000002     --HOLE-- [fill = 0]
                  00015b4c    00000028     libdpm_xwr18xx.aer4f : dpm_mailbox.oer4f (.text:DPM_mboxDeinit)
                  00015b74    00000028                          : dpm_msg.oer4f (.text:DPM_msgInitHeader)
                  00015b9c    00000028     librangeproc_hwa_xwr18xx.aer4f : rangeprochwa.oer4f (.text:DPU_RangeProcHWA_deinit)
                  00015bc4    00000028     libmailbox_xwr18xx.aer4f : mailbox.oer4f (.text:Mailbox_Config_init)
                  00015bec    00000028     rtsv7R4_T_le_v3D16_eabi.lib : lseek.obj (.text)
                  00015c14    00000028                                 : read.obj (.text)
                  00015c3c    00000028                                 : write.obj (.text)
                  00015c64    0000000c     --HOLE-- [fill = 0]
                  00015c70    00000028     sysbios.aer4ft : BIOS.obj (.text:ti_sysbios_knl_Idle_run__E)
                  00015c98    00000008     --HOLE-- [fill = 0]
                  00015ca0    00000028                    : BIOS.obj (.text:ti_sysbios_knl_Task_restore__E)
                  00015cc8    00000008     --HOLE-- [fill = 0]
                  00015cd0    00000028                    : BIOS.obj (.text:xdc_runtime_SysStd_abort__E)
                  00015cf8    00000008     --HOLE-- [fill = 0]
                  00015d00    00000028                    : BIOS.obj (.text:xdc_runtime_System_aprintf_va__F)
                  00015d28    00000026     libstaticclutterproc_xwr18xx.aer4f : staticclutterproc.oer4f (.text:DPU_StaticClutterProc_waitInData)
                  00015d4e    00000026                                        : staticclutterproc.oer4f (.text:DPU_StaticClutterProc_waitOutData)
                  00015d74    00000026     rtsv7R4_T_le_v3D16_eabi.lib : memcmp.obj (.text)
                  00015d9a    00000006     --HOLE-- [fill = 0]
                  00015da0    00000026     sysbios.aer4ft : BIOS.obj (.text:xdc_runtime_System_printf_va__F)
                  00015dc6    00000002     --HOLE-- [fill = 0]
                  00015dc8    00000024     libedma_xwr18xx.aer4f : edma_low_level.oer4f (.text:EDMA3ClrEvt)
                  00015dec    00000024                           : edma_low_level.oer4f (.text:EDMA3ClrIntr)
                  00015e10    00000024                           : edma_low_level.oer4f (.text:EDMA3DisableDmaEvt)
                  00015e34    00000024                           : edma_low_level.oer4f (.text:EDMA3DisableEvtIntr)
                  00015e58    00000024                           : edma_low_level.oer4f (.text:EDMA3EnableDmaEvt)
                  00015e7c    00000024                           : edma_low_level.oer4f (.text:EDMA3EnableEvtIntr)
                  00015ea0    00000024                           : edma_low_level.oer4f (.text:EDMA3SetEvt)
                  00015ec4    00000024                           : edma.oer4f (.text:EDMA_clearTransferControllerErrors)
                  00015ee8    00000024     libtestlogger_xwr18xx.aer4f : logger.oer4f (.text:MCPI_Initialize)
                  00015f0c    00000024     main.oer4f (.text:ObjectDetection_Test_getChirpData)
                  00015f30    00000024     libsoc_xwr18xx.aer4f : soc_xwr18xx.oer4f (.text:SOC_isDSSOperational)
                  00015f54    00000024     mss_per4ft.oer4ft (.text:ti_sysbios_BIOS_errorRaiseHook__I)
                  00015f78    00000024     mss_per4ft.oer4ft (.text:ti_sysbios_BIOS_registerRTSLock__I)
                  00015f9c    00000024     mss_per4ft.oer4ft (.text:ti_sysbios_BIOS_removeRTSLock__I)
                  00015fc0    00000024     mss_per4ft.oer4ft (.text:ti_sysbios_gates_GateMutex_Object__delete__S)
                  00015fe4    0000000c     --HOLE-- [fill = 0]
                  00015ff0    00000024     sysbios.aer4ft : BIOS.obj (.text:ti_sysbios_knl_Clock_Module_startup__E)
                  00016014    00000024     mss_per4ft.oer4ft (.text:ti_sysbios_knl_Semaphore_Object__delete__S)
                  00016038    00000008     --HOLE-- [fill = 0]
                  00016040    00000024     sysbios.aer4ft : BIOS.obj (.text:ti_sysbios_knl_Task_restoreHwi__E)
                  00016064    00000022     objectdetection.oer4f (.text:DPC_ObjDet_GenDopplerWindow)
                  00016086    00000020     libdpm_xwr18xx.aer4f : dpm_listlib.oer4f (.text:DPM_listCat)
                  000160a6    00000002     --HOLE-- [fill = 0]
                  000160a8    00000020     libedma_xwr18xx.aer4f : edma_low_level.oer4f (.text:EDMA3QdmaClrMissEvt)
                  000160c8    00000020     libesm_xwr18xx.aer4f : esm.oer4f (.text:ESM_lowpriority_IRQ)
                  000160e8    00000020     rtsv7R4_T_le_v3D16_eabi.lib : memchr.obj (.text)
                  00016108    00000008     --HOLE-- [fill = 0]
                  00016110    00000020     sysbios.aer4ft : BIOS.obj (.text:ti_sysbios_family_arm_v7a_Pmu_Module_startup__E)
                  00016130    00000020     mss_per4ft.oer4ft (.text:ti_sysbios_family_arm_v7r_vim_Hwi_Object__delete__S)
                  00016150    00000020     sysbios.aer4ft : BIOS.obj (.text:ti_sysbios_family_arm_v7r_vim_Hwi_disableInterrupt__E)
                  00016170    00000020                    : BIOS.obj (.text:ti_sysbios_family_arm_v7r_vim_Hwi_enableInterrupt__E)
                  00016190    00000020     mss_per4ft.oer4ft (.text:ti_sysbios_gates_GateHwi_Object__delete__S)
                  000161b0    00000020     mss_per4ft.oer4ft (.text:ti_sysbios_heaps_HeapMem_Object__delete__S)
                  000161d0    00000020     mss_per4ft.oer4ft (.text:ti_sysbios_knl_Semaphore_destruct)
                  000161f0    0000001e     libaoa2dproc_hwa_xwr18xx.aer4f : aoa2dprochwa.oer4f (.text:AoAProcHWA_waitEdma)
                  0001620e    0000001e     libcfarcaproc_hwa_xwr18xx.aer4f : cfarcaprochwa.oer4f (.text:CFARHWA_isHwaCfarDetected)
                  0001622c    0000001e     libdpm_xwr18xx.aer4f : dpm_pipe.oer4f (.text:DPM_pipeDequeue)
                  0001624a    0000001e     libsoc_xwr18xx.aer4f : soc_xwr18xx_mss.oer4f (.text:SOC_getOutAddr_LUTType)
                  00016268    0000001e     rtsv7R4_T_le_v3D16_eabi.lib : strcat.obj (.text)
                  00016286    0000001c     libhwa_xwr18xx.aer4f : hwa.oer4f (.text:CSL_FEXTR)
                  000162a2    0000001c     libsoc_xwr18xx.aer4f : soc.oer4f (.text:CSL_FEXTR)
                  000162be    0000001c                          : soc_xwr18xx.oer4f (.text:CSL_FEXTR)
                  000162da    0000001c                          : soc_xwr18xx_mss.oer4f (.text:CSL_FEXTR)
                  000162f6    0000001c     libdpm_xwr18xx.aer4f : dpm_listlib.oer4f (.text:DPM_listRemove)
                  00016312    00000002     --HOLE-- [fill = 0]
                  00016314    0000001c     libaoa2dproc_hwa_xwr18xx.aer4f : aoa2dprochwa.oer4f (.text:DPU_AoAProcHWA_deinit)
                  00016330    0000001c     libstaticclutterproc_xwr18xx.aer4f : staticclutterproc.oer4f (.text:DPU_StaticClutterProc_deinit)
                  0001634c    0000001c     libsoc_xwr18xx.aer4f : soc_xwr18xx_mss.oer4f (.text:SOC_getInAddr_LUTType)
                  00016368    0000001c     sysbios.aer4ft : arm_TaskSupport_asm.obj (.text:_ti_sysbios_family_arm_TaskSupport_glue)
                  00016384    0000001c                    : arm_TaskSupport_asm.obj (.text:_ti_sysbios_family_arm_TaskSupport_swap__E)
                  000163a0    0000001c     rtsv7R4_T_le_v3D16_eabi.lib : memccpy.obj (.text)
                  000163bc    0000001c     mss_per4ft.oer4ft (.text:ti_sysbios_BIOS_rtsLock__I)
                  000163d8    00000008     --HOLE-- [fill = 0]
                  000163e0    0000001c     sysbios.aer4ft : BIOS.obj (.text:ti_sysbios_gates_GateMutex_Instance_init__E)
                  000163fc    00000004     --HOLE-- [fill = 0]
                  00016400    0000001c                    : BIOS.obj (.text:ti_sysbios_gates_GateMutex_leave__E)
                  0001641c    0000001c     mss_per4ft.oer4ft (.text:ti_sysbios_knl_Queue_destruct)
                  00016438    0000001a     libdpm_xwr18xx.aer4f : dpm_listlib.oer4f (.text:DPM_listAdd)
                  00016452    0000001a                          : dpm_mailbox.oer4f (.text:DPM_mboxMsgSend)
                  0001646c    0000001a                          : dpm_msg.oer4f (.text:DPM_msgAssertHandler)
                  00016486    0000001a                          : dpm_msg.oer4f (.text:DPM_msgDPCInfoHandler)
                  000164a0    0000001a     libedma_xwr18xx.aer4f : edma_low_level.oer4f (.text:EDMA3SetPaRAM)
                  000164ba    0000001a     mss_per4ft.oer4ft (.text:free)
                  000164d4    0000001a     libedma_xwr18xx.aer4f : edma.oer4f (.text:isAcntInList1)
                  000164ee    0000001a     rtsv7R4_T_le_v3D16_eabi.lib : s_copysign.obj (.text)
                  00016508    0000001a     mss_per4ft.oer4ft (.text:ti_sysbios_gates_GateHwi_Handle__label__S)
                  00016522    0000001a     mss_per4ft.oer4ft (.text:ti_sysbios_gates_GateMutex_Handle__label__S)
                  0001653c    0000001a     mss_per4ft.oer4ft (.text:ti_sysbios_heaps_HeapMem_Handle__label__S)
                  00016556    0000001a     mss_per4ft.oer4ft (.text:xdc_runtime_System_aprintf__E)
                  00016570    0000001a     mss_per4ft.oer4ft (.text:xdc_runtime_System_printf__E)
                  0001658a    00000018     objectdetection.oer4f (.text:DPC_ObjDet_GenRangeWindow)
                  000165a2    00000018     libdpm_xwr18xx.aer4f : dpm_msg.oer4f (.text:DPM_msgBSSFaultHandler)
                  000165ba    00000002     --HOLE-- [fill = 0]
                  000165bc    00000018     libcfarcaproc_hwa_xwr18xx.aer4f : cfarcaprochwa.oer4f (.text:DPU_CFARCAProcHWA_deinit)
                  000165d4    00000018     libdopplerproc_hwa_xwr18xx.aer4f : dopplerprochwa.oer4f (.text:DPU_DopplerProcHWA_deinit)
                  000165ec    00000018     libedma_xwr18xx.aer4f : edma_low_level.oer4f (.text:EDMA3DisableQdmaEvt)
                  00016604    00000018                           : edma_low_level.oer4f (.text:EDMA3EnableQdmaEvt)
                  0001661c    00000018     libmailbox_xwr18xx.aer4f : mailbox.oer4f (.text:Mailbox_boxEmptyISRBss)
                  00016634    00000018                              : mailbox.oer4f (.text:Mailbox_boxEmptyISRMssDss)
                  0001664c    00000018                              : mailbox.oer4f (.text:Mailbox_boxFullISRBss)
                  00016664    00000018     rtsv7R4_T_le_v3D16_eabi.lib : args_main.obj (.text)
                  0001667c    00000018                                 : ll_mul_t2.obj (.text)
                  00016694    00000018                                 : strcmp.obj (.text)
                  000166ac    00000018     mss_per4ft.oer4ft (.text:ti_sysbios_BIOS_rtsUnlock__I)
                  000166c4    00000018     sysbios.aer4ft : BIOS.obj (.text:ti_sysbios_family_arm_v7a_Pmu_initCounters__I)
                  000166dc    00000018     mss_per4ft.oer4ft (.text:ti_sysbios_family_arm_v7r_vim_Hwi_Module__startupDone__F)
                  000166f4    00000018     mss_per4ft.oer4ft (.text:ti_sysbios_family_arm_v7r_vim_Hwi_Params__init__S)
                  0001670c    00000004     --HOLE-- [fill = 0]
                  00016710    00000018     sysbios.aer4ft : BIOS.obj (.text:ti_sysbios_family_arm_v7r_vim_Hwi_clearInterrupt__E)
                  00016728    00000018     mss_per4ft.oer4ft (.text:ti_sysbios_knl_Semaphore_Params__init__S)
                  00016740    00000018     mss_per4ft.oer4ft (.text:ti_sysbios_knl_Task_Params__init__S)
                  00016758    00000008     --HOLE-- [fill = 0]
                  00016760    00000018     sysbios.aer4ft : BIOS.obj (.text:ti_sysbios_knl_Task_enter__I)
                  00016778    00000018     mss_per4ft.oer4ft (.text:ti_sysbios_timers_rti_Timer_Module__startupDone__F)
                  00016790    00000018     sysbios.aer4ft : BIOS.obj (.text:xdc_runtime_Error_init__E)
                  000167a8    00000016     main.oer4f (.text:ObjectDetection_Test_deinitComponents)
                  000167be    00000016     main.oer4f (.text:ObjectDetection_Test_edmaClose)
                  000167d4    00000016     librangeproc_hwa_xwr18xx.aer4f : rangeprochwa.oer4f (.text:rangeProcHWA_EDMA_transferCompletionCallbackFxn)
                  000167ea    00000016     rtsv7R4_T_le_v3D16_eabi.lib : strchr.obj (.text)
                  00016800    00000016                                 : strlen.obj (.text)
                  00016816    00000016     mss_per4ft.oer4ft (.text:ti_sysbios_BIOS_exitFunc__I)
                  0001682c    00000004     --HOLE-- [fill = 0]
                  00016830    00000016     sysbios.aer4ft : BIOS.obj (.text:ti_sysbios_knl_Idle_loop__E)
                  00016846    00000014     libosal_xwr18xx.aer4f : CycleprofilerP_tirtos.oer4f (.text:CycleprofilerP_init)
                  0001685a    00000002     --HOLE-- [fill = 0]
                  0001685c    00000014     libedma_xwr18xx.aer4f : edma_low_level.oer4f (.text:EDMA3GetIntrStatus)
                  00016870    00000014                           : edma_low_level.oer4f (.text:EDMA3IntrStatusHighGet)
                  00016884    00000014                           : edma_low_level.oer4f (.text:EDMA3MapQdmaChToPaRAM)
                  00016898    00000014     libosal_xwr18xx.aer4f : HwiP_tirtos.oer4f (.text:HwiP_Params_init)
                  000168ac    00000014     libtestlogger_xwr18xx.aer4f : logger.oer4f (.text:MCPI_setTestResult)
                  000168c0    00000014     libosal_xwr18xx.aer4f : DebugP_tirtos.oer4f (.text:_DebugP_assert)
                  000168d4    00000014     libmathutils.aer4f : mathutils.oer4f (.text:mathUtils_ceilLog2)
                  000168e8    00000014     rtsv7R4_T_le_v3D16_eabi.lib : _lock.obj (.text)
                  000168fc    00000014                                 : strcpy.obj (.text)
                  00016910    00000014     mss_per4ft.oer4ft (.text:ti_sysbios_heaps_HeapMem_Object__get__S)
                  00016924    00000014     mss_per4ft.oer4ft (.text:ti_sysbios_knl_Swi_Object__get__S)
                  00016938    00000012     libedma_xwr18xx.aer4f : edma_low_level.oer4f (.text:EDMA3SetQdmaTrigWord)
                  0001694a    00000012     libosal_xwr18xx.aer4f : MemoryP_tirtos.oer4f (.text:MemoryP_ctrlAlloc)
                  0001695c    00000012                           : SemaphoreP_tirtos.oer4f (.text:SemaphoreP_pend)
                  0001696e    00000012     libmathutils.aer4f : mathutils.oer4f (.text:mathUtils_pow2roundup)
                  00016980    00000012     sysbios.aer4ft : BIOS.obj (.text:ti_sysbios_hal_Hwi_Module_startup__E)
                  00016992    00000012     mss_per4ft.oer4ft (.text:xdc_runtime_Startup_exec__I)
                  000169a4    00000010     main.oer4f (.text:ObjectDetection_Test_initGenerator)
                  000169b4    0000000c     --HOLE-- [fill = 0]
                  000169c0    00000010     sysbios.aer4ft : BIOS.obj (.text:ti_sysbios_BIOS_exit__E)
                  000169d0    00000010                    : BIOS.obj (.text:ti_sysbios_BIOS_setThreadType__E)
                  000169e0    00000010                    : BIOS.obj (.text:ti_sysbios_BIOS_start__E)
                  000169f0    00000010                    : BIOS.obj (.text:ti_sysbios_family_arm_v7a_Pmu_disableInterruptI__E)
                  00016a00    00000010                    : BIOS.obj (.text:ti_sysbios_family_arm_v7a_Pmu_enableInterruptI__E)
                  00016a10    00000010                    : BIOS.obj (.text:ti_sysbios_family_arm_v7a_Pmu_getNumCounters__E)
                  00016a20    00000010                    : BIOS.obj (.text:ti_sysbios_family_arm_v7a_Pmu_startCounterI__E)
                  00016a30    00000010                    : BIOS.obj (.text:ti_sysbios_family_arm_v7a_Pmu_stopCounterI__E)
                  00016a40    00000010                    : BIOS.obj (.text:ti_sysbios_gates_GateMutex_Instance_finalize__E)
                  00016a50    00000010     mss_per4ft.oer4ft (.text:ti_sysbios_heaps_HeapBuf_Object__get__S)
                  00016a60    00000010     sysbios.aer4ft : BIOS.obj (.text:ti_sysbios_knl_Semaphore_Instance_finalize__E)
                  00016a70    00000010                    : BIOS.obj (.text:ti_sysbios_knl_Swi_disable__E)
                  00016a80    00000010     mss_per4ft.oer4ft (.text:ti_sysbios_knl_Task_Object__get__S)
                  00016a90    00000010     sysbios.aer4ft : BIOS.obj (.text:ti_sysbios_knl_Task_disable__E)
                  00016aa0    00000010                    : BIOS.obj (.text:xdc_runtime_Memory_free__E)
                  00016ab0    00000010                    : BIOS.obj (.text:xdc_runtime_Memory_getStats__E)
                  00016ac0    00000010     mss_per4ft.oer4ft (.text:xdc_runtime_Text_visitRope__I)
                  00016ad0    0000000e     rtsv7R4_T_le_v3D16_eabi.lib : copy_decompress_none.obj (.text:decompress:none)
                  00016ade    00000002     --HOLE-- [fill = 0]
                  00016ae0    0000000e     sysbios.aer4ft : BIOS.obj (.text:ti_sysbios_knl_Queue_empty__E)
                  00016aee    00000002     --HOLE-- [fill = 0]
                  00016af0    0000000c                    : BIOS.obj (.text:ti_sysbios_family_arm_TaskSupport_checkStack__E)
                  00016afc    00000004     --HOLE-- [fill = 0]
                  00016b00    0000000c                    : BIOS.obj (.text:ti_sysbios_family_arm_TaskSupport_getStackAlignment__E)
                  00016b0c    00000004     --HOLE-- [fill = 0]
                  00016b10    0000000c                    : BIOS.obj (.text:ti_sysbios_family_arm_exc_Exception_Module_startup__E)
                  00016b1c    00000004     --HOLE-- [fill = 0]
                  00016b20    0000000c                    : BIOS.obj (.text:ti_sysbios_family_arm_v7r_vim_Hwi_switchFromBootStack__E)
                  00016b2c    00000004     --HOLE-- [fill = 0]
                  00016b30    0000000c                    : BIOS.obj (.text:xdc_runtime_Startup_rtsDone__E)
                  00016b3c    00000004     --HOLE-- [fill = 0]
                  00016b40    0000000c                    : BIOS.obj (.text:xdc_runtime_SysStd_exit__E)
                  00016b4c    00000004     --HOLE-- [fill = 0]
                  00016b50    00000008                    : BIOS.obj (.text:ti_sysbios_gates_GateHwi_enter__E)
                  00016b58    00000008     --HOLE-- [fill = 0]
                  00016b60    00000006                    : BIOS.obj (.text:ti_sysbios_family_arm_v7r_vim_Hwi_startup__E)
                  00016b66    0000000a     --HOLE-- [fill = 0]
                  00016b70    00000006                    : BIOS.obj (.text:ti_sysbios_gates_GateHwi_leave__E)
                  00016b76    0000000a     --HOLE-- [fill = 0]
                  00016b80    00000006                    : BIOS.obj (.text:ti_sysbios_heaps_HeapMem_isBlocking__E)
                  00016b86    0000000a     --HOLE-- [fill = 0]
                  00016b90    00000006                    : BIOS.obj (.text:ti_sysbios_knl_Queue_Instance_init__E)
                  00016b96    0000000a     --HOLE-- [fill = 0]
                  00016ba0    00000006                    : BIOS.obj (.text:xdc_runtime_System_Module_startup__E)
                  00016ba6    0000000a     --HOLE-- [fill = 0]
                  00016bb0    00000004                    : BIOS.obj (.text:ti_sysbios_gates_GateHwi_query__E)
                  00016bb4    0000000c     --HOLE-- [fill = 0]
                  00016bc0    00000004                    : BIOS.obj (.text:ti_sysbios_gates_GateMutex_query__E)
                  00016bc4    0000000c     --HOLE-- [fill = 0]
                  00016bd0    00000004                    : BIOS.obj (.text:ti_sysbios_knl_Task_startup__E)
                  00016bd4    0000000c     --HOLE-- [fill = 0]
                  00016be0    00000004                    : BIOS.obj (.text:ti_sysbios_timers_rti_Timer_getMaxTicks__E)
                  00016be4    0000000c     --HOLE-- [fill = 0]
                  00016bf0    00000004                    : BIOS.obj (.text:xdc_runtime_SysStd_putch__E)
                  00016bf4    0000000c     --HOLE-- [fill = 0]
                  00016c00    00000004                    : BIOS.obj (.text:xdc_runtime_SysStd_ready__E)
                  00016c04    0000000c     --HOLE-- [fill = 0]
                  00016c10    00000002                    : BIOS.obj (.text:ti_sysbios_BIOS_linkedWithIncorrectBootLibrary__E)
                  00016c12    0000000e     --HOLE-- [fill = 0]
                  00016c20    00000002                    : BIOS.obj (.text:ti_sysbios_gates_GateHwi_Instance_init__E)
                  00016c22    0000000e     --HOLE-- [fill = 0]
                  00016c30    00000002                    : BIOS.obj (.text:ti_sysbios_knl_Clock_logTick__E)

.const     0    00016c38    0000257c     
                  00016c38    00001b6f     mss_per4ft.oer4ft (.const:xdc_runtime_Text_charTab__A)
                  000187a7    00000001     --HOLE-- [fill = 0]
                  000187a8    00000158     rtsv7R4_T_le_v3D16_eabi.lib : k_rem_pio2.obj (.const:$O1$$)
                  00018900    00000101                                 : ctype.obj (.const:.string:_ctypes_)
                  00018a01    00000001     --HOLE-- [fill = 0]
                  00018a02    000000d8     mss_per4ft.oer4ft (.const:xdc_runtime_Text_nodeTab__A)
                  00018ada    00000080     mss_per4ft.oer4ft (.const:ti_sysbios_family_arm_v7r_vim_Hwi_channelMap__A)
                  00018b5a    00000002     mss_per4ft.oer4ft (.const:ti_sysbios_family_arm_exc_Exception_Module__id__C)
                  00018b5c    00000058     mss_per4ft.oer4ft (.const:.string)
                  00018bb4    00000044     mss_per4ft.oer4ft (.const:ti_sysbios_knl_Task_Object__PARAMS__C)
                  00018bf8    00000040     libhwa_xwr18xx.aer4f : hwa.oer4f (.const:gHwaTrigSignatures)
                  00018c38    00000038     libedma_xwr18xx.aer4f : edma_xwr1xxx.oer4f (.const:gEdmaHwAttrs)
                  00018c70    00000030     rtsv7R4_T_le_v3D16_eabi.lib : e_pow.obj (.const:$O1$$)
                  00018ca0    00000030     mss_per4ft.oer4ft (.const:ti_sysbios_family_arm_v7r_vim_Hwi_Object__PARAMS__C)
                  00018cd0    0000002c     mss_per4ft.oer4ft (.const:xdc_runtime_Startup_sfxnTab__A)
                  00018cfc    00000028     libdpm_xwr18xx.aer4f : dpm_msg.oer4f (.const:gDPMMessageFxnTable)
                  00018d24    00000028     mss_per4ft.oer4ft (.const:ti_sysbios_heaps_HeapMem_Module__FXNS__C)
                  00018d4c    00000024     libmailbox_xwr18xx.aer4f : mailbox.oer4f (.const:Mailbox_defaultCfg)
                  00018d70    00000024     mss_per4ft.oer4ft (.const:ti_sysbios_gates_GateHwi_Module__FXNS__C)
                  00018d94    00000024     mss_per4ft.oer4ft (.const:ti_sysbios_gates_GateMutex_Module__FXNS__C)
                  00018db8    00000024     mss_per4ft.oer4ft (.const:ti_sysbios_heaps_HeapMem_Object__PARAMS__C)
                  00018ddc    00000024     mss_per4ft.oer4ft (.const:ti_sysbios_knl_Semaphore_Object__PARAMS__C)
                  00018e00    00000020     libhwa_xwr18xx.aer4f : hwa.oer4f (.const:$P$T0$1)
                  00018e20    00000020     mss_per4ft.oer4ft (.const:ti_sysbios_family_arm_v7r_vim_Hwi_Object__DESC__C)
                  00018e40    00000020     mss_per4ft.oer4ft (.const:ti_sysbios_gates_GateHwi_Object__DESC__C)
                  00018e60    00000020     mss_per4ft.oer4ft (.const:ti_sysbios_gates_GateMutex_Object__DESC__C)
                  00018e80    00000020     mss_per4ft.oer4ft (.const:ti_sysbios_heaps_HeapMem_Object__DESC__C)
                  00018ea0    00000020     mss_per4ft.oer4ft (.const:ti_sysbios_knl_Queue_Object__DESC__C)
                  00018ec0    00000020     mss_per4ft.oer4ft (.const:ti_sysbios_knl_Semaphore_Object__DESC__C)
                  00018ee0    00000020     mss_per4ft.oer4ft (.const:ti_sysbios_knl_Task_Object__DESC__C)
                  00018f00    00000018     mss_per4ft.oer4ft (.const:ti_sysbios_gates_GateHwi_Object__PARAMS__C)
                  00018f18    00000018     mss_per4ft.oer4ft (.const:ti_sysbios_gates_GateMutex_Object__PARAMS__C)
                  00018f30    00000018     mss_per4ft.oer4ft (.const:ti_sysbios_knl_Queue_Object__PARAMS__C)
                  00018f48    00000016     mss_per4ft.oer4ft (.const:xdc_runtime_Startup_sfxnRts__A)
                  00018f5e    00000002     mss_per4ft.oer4ft (.const:ti_sysbios_family_arm_v7a_Pmu_Module__id__C)
                  00018f60    00000010     libedma_xwr18xx.aer4f : edma.oer4f (.const:EDMA_config$1)
                  00018f70    00000010     mss_per4ft.oer4ft (.const:ti_sysbios_family_arm_v7r_vim_Hwi_intReqEnaSet__A)
                  00018f80    00000010     mss_per4ft.oer4ft (.const:ti_sysbios_family_arm_v7r_vim_Hwi_wakeEnaSet__A)
                  00018f90    00000008     mss_per4ft.oer4ft (.const:ti_sysbios_knl_Idle_funcList__C)
                  00018f98    00000008     mss_per4ft.oer4ft (.const:xdc_runtime_Startup_firstFxns__A)
                  00018fa0    00000008     mss_per4ft.oer4ft (.const:xdc_runtime_Startup_firstFxns__C)
                  00018fa8    00000008     mss_per4ft.oer4ft (.const:xdc_runtime_Startup_lastFxns__C)
                  00018fb0    00000004     mss_per4ft.oer4ft (.const:ti_sysbios_family_arm_TaskSupport_stackAlignment__C)
                  00018fb4    00000004     mss_per4ft.oer4ft (.const:ti_sysbios_family_arm_exc_Exception_E_dataAbort__C)
                  00018fb8    00000004     mss_per4ft.oer4ft (.const:ti_sysbios_family_arm_exc_Exception_E_prefetchAbort__C)
                  00018fbc    00000004     mss_per4ft.oer4ft (.const:ti_sysbios_family_arm_exc_Exception_E_swi__C)
                  00018fc0    00000004     mss_per4ft.oer4ft (.const:ti_sysbios_family_arm_exc_Exception_E_undefinedInstruction__C)
                  00018fc4    00000004     mss_per4ft.oer4ft (.const:ti_sysbios_family_arm_exc_Exception_excHookFuncs__A)
                  00018fc8    00000004     mss_per4ft.oer4ft (.const:ti_sysbios_family_arm_exc_Exception_excHookFuncs__C)
                  00018fcc    00000004     mss_per4ft.oer4ft (.const:ti_sysbios_family_arm_v7a_Pmu_A_invalidCounterId__C)
                  00018fd0    00000004     mss_per4ft.oer4ft (.const:ti_sysbios_family_arm_v7a_Pmu_Module__diagsEnabled__C)
                  00018fd4    00000004     mss_per4ft.oer4ft (.const:ti_sysbios_family_arm_v7a_Pmu_Module__diagsIncluded__C)
                  00018fd8    00000004     mss_per4ft.oer4ft (.const:ti_sysbios_family_arm_v7a_Pmu_Module__diagsMask__C)
                  00018fdc    00000004     mss_per4ft.oer4ft (.const:ti_sysbios_family_arm_v7r_tms570_Core_E_mismatchedIds__C)
                  00018fe0    00000004     mss_per4ft.oer4ft (.const:ti_sysbios_family_arm_v7r_tms570_Core_id__C)
                  00018fe4    00000004     mss_per4ft.oer4ft (.const:ti_sysbios_family_arm_v7r_vim_Hwi_A_badChannelId__C)
                  00018fe8    00000004     mss_per4ft.oer4ft (.const:ti_sysbios_family_arm_v7r_vim_Hwi_E_alreadyDefined__C)
                  00018fec    00000004     mss_per4ft.oer4ft (.const:ti_sysbios_family_arm_v7r_vim_Hwi_E_badIntNum__C)
                  00018ff0    00000004     mss_per4ft.oer4ft (.const:ti_sysbios_family_arm_v7r_vim_Hwi_E_phantomInterrupt__C)
                  00018ff4    00000004     mss_per4ft.oer4ft (.const:ti_sysbios_family_arm_v7r_vim_Hwi_E_undefined__C)
                  00018ff8    00000004     mss_per4ft.oer4ft (.const:ti_sysbios_family_arm_v7r_vim_Hwi_E_unsupportedMaskingOption__C)
                  00018ffc    00000004     mss_per4ft.oer4ft (.const:ti_sysbios_family_arm_v7r_vim_Hwi_Module__diagsEnabled__C)
                  00019000    00000004     mss_per4ft.oer4ft (.const:ti_sysbios_family_arm_v7r_vim_Hwi_Module__diagsIncluded__C)
                  00019004    00000004     mss_per4ft.oer4ft (.const:ti_sysbios_family_arm_v7r_vim_Hwi_Module__diagsMask__C)
                  00019008    00000004     mss_per4ft.oer4ft (.const:ti_sysbios_family_arm_v7r_vim_Hwi_NUM_INTERRUPTS__C)
                  0001900c    00000004     mss_per4ft.oer4ft (.const:ti_sysbios_family_arm_v7r_vim_Hwi_channelMap__C)
                  00019010    00000004     mss_per4ft.oer4ft (.const:ti_sysbios_family_arm_v7r_vim_Hwi_intReqEnaSet__C)
                  00019014    00000004     mss_per4ft.oer4ft (.const:ti_sysbios_family_arm_v7r_vim_Hwi_phantomFunc__C)
                  00019018    00000004     mss_per4ft.oer4ft (.const:ti_sysbios_family_arm_v7r_vim_Hwi_swiDisable__C)
                  0001901c    00000004     mss_per4ft.oer4ft (.const:ti_sysbios_family_arm_v7r_vim_Hwi_swiRestoreHwi__C)
                  00019020    00000004     mss_per4ft.oer4ft (.const:ti_sysbios_family_arm_v7r_vim_Hwi_taskDisable__C)
                  00019024    00000004     mss_per4ft.oer4ft (.const:ti_sysbios_family_arm_v7r_vim_Hwi_taskRestoreHwi__C)
                  00019028    00000004     mss_per4ft.oer4ft (.const:ti_sysbios_family_arm_v7r_vim_Hwi_wakeEnaSet__C)
                  0001902c    00000004     mss_per4ft.oer4ft (.const:ti_sysbios_gates_GateMutex_A_badContext__C)
                  00019030    00000004     mss_per4ft.oer4ft (.const:ti_sysbios_gates_GateMutex_Instance_State_sem__O)
                  00019034    00000004     mss_per4ft.oer4ft (.const:ti_sysbios_gates_GateMutex_Module__diagsEnabled__C)
                  00019038    00000004     mss_per4ft.oer4ft (.const:ti_sysbios_gates_GateMutex_Module__diagsIncluded__C)
                  0001903c    00000004     mss_per4ft.oer4ft (.const:ti_sysbios_gates_GateMutex_Module__diagsMask__C)
                  00019040    00000004     mss_per4ft.oer4ft (.const:ti_sysbios_hal_Hwi_E_stackOverflow__C)
                  00019044    00000004     mss_per4ft.oer4ft (.const:ti_sysbios_heaps_HeapBuf_Instance_State_freeList__O)
                  00019048    00000004     mss_per4ft.oer4ft (.const:ti_sysbios_heaps_HeapBuf_Object__count__C)
                  0001904c    00000004     mss_per4ft.oer4ft (.const:ti_sysbios_heaps_HeapBuf_numConstructedHeaps__C)
                  00019050    00000004     mss_per4ft.oer4ft (.const:ti_sysbios_heaps_HeapMem_A_align__C)
                  00019054    00000004     mss_per4ft.oer4ft (.const:ti_sysbios_heaps_HeapMem_A_heapSize__C)
                  00019058    00000004     mss_per4ft.oer4ft (.const:ti_sysbios_heaps_HeapMem_A_invalidFree__C)
                  0001905c    00000004     mss_per4ft.oer4ft (.const:ti_sysbios_heaps_HeapMem_A_zeroBlock__C)
                  00019060    00000004     mss_per4ft.oer4ft (.const:ti_sysbios_heaps_HeapMem_E_memory__C)
                  00019064    00000004     mss_per4ft.oer4ft (.const:ti_sysbios_heaps_HeapMem_Module__diagsEnabled__C)
                  00019068    00000004     mss_per4ft.oer4ft (.const:ti_sysbios_heaps_HeapMem_Module__diagsIncluded__C)
                  0001906c    00000004     mss_per4ft.oer4ft (.const:ti_sysbios_heaps_HeapMem_Module__diagsMask__C)
                  00019070    00000004     mss_per4ft.oer4ft (.const:ti_sysbios_heaps_HeapMem_Module__gateObj__C)
                  00019074    00000004     mss_per4ft.oer4ft (.const:ti_sysbios_heaps_HeapMem_Object__count__C)
                  00019078    00000004     mss_per4ft.oer4ft (.const:ti_sysbios_heaps_HeapMem_reqAlign__C)
                  0001907c    00000004     mss_per4ft.oer4ft (.const:ti_sysbios_knl_Clock_Module_State_clockQ__O)
                  00019080    00000004     mss_per4ft.oer4ft (.const:ti_sysbios_knl_Idle_funcList__A)
                  00019084    00000004     mss_per4ft.oer4ft (.const:ti_sysbios_knl_Semaphore_A_badContext__C)
                  00019088    00000004     mss_per4ft.oer4ft (.const:ti_sysbios_knl_Semaphore_A_noEvents__C)
                  0001908c    00000004     mss_per4ft.oer4ft (.const:ti_sysbios_knl_Semaphore_A_overflow__C)
                  00019090    00000004     mss_per4ft.oer4ft (.const:ti_sysbios_knl_Semaphore_A_pendTaskDisabled__C)
                  00019094    00000004     mss_per4ft.oer4ft (.const:ti_sysbios_knl_Semaphore_Instance_State_pendQ__O)
                  00019098    00000004     mss_per4ft.oer4ft (.const:ti_sysbios_knl_Semaphore_Module__diagsEnabled__C)
                  0001909c    00000004     mss_per4ft.oer4ft (.const:ti_sysbios_knl_Semaphore_Module__diagsIncluded__C)
                  000190a0    00000004     mss_per4ft.oer4ft (.const:ti_sysbios_knl_Semaphore_Module__diagsMask__C)
                  000190a4    00000004     mss_per4ft.oer4ft (.const:ti_sysbios_knl_Swi_Object__count__C)
                  000190a8    00000004     mss_per4ft.oer4ft (.const:ti_sysbios_knl_Task_A_badPriority__C)
                  000190ac    00000004     mss_per4ft.oer4ft (.const:ti_sysbios_knl_Task_A_badTaskState__C)
                  000190b0    00000004     mss_per4ft.oer4ft (.const:ti_sysbios_knl_Task_A_badThreadType__C)
                  000190b4    00000004     mss_per4ft.oer4ft (.const:ti_sysbios_knl_Task_A_badTimeout__C)
                  000190b8    00000004     mss_per4ft.oer4ft (.const:ti_sysbios_knl_Task_A_noPendElem__C)
                  000190bc    00000004     mss_per4ft.oer4ft (.const:ti_sysbios_knl_Task_A_sleepTaskDisabled__C)
                  000190c0    00000004     mss_per4ft.oer4ft (.const:ti_sysbios_knl_Task_E_spOutOfBounds__C)
                  000190c4    00000004     mss_per4ft.oer4ft (.const:ti_sysbios_knl_Task_E_stackOverflow__C)
                  000190c8    00000004     mss_per4ft.oer4ft (.const:ti_sysbios_knl_Task_Module_State_inactiveQ__O)
                  000190cc    00000004     mss_per4ft.oer4ft (.const:ti_sysbios_knl_Task_Module__diagsEnabled__C)
                  000190d0    00000004     mss_per4ft.oer4ft (.const:ti_sysbios_knl_Task_Module__diagsIncluded__C)
                  000190d4    00000004     mss_per4ft.oer4ft (.const:ti_sysbios_knl_Task_Module__diagsMask__C)
                  000190d8    00000004     mss_per4ft.oer4ft (.const:ti_sysbios_knl_Task_Object__count__C)
                  000190dc    00000004     mss_per4ft.oer4ft (.const:ti_sysbios_knl_Task_allBlockedFunc__C)
                  000190e0    00000004     mss_per4ft.oer4ft (.const:ti_sysbios_knl_Task_defaultStackHeap__C)
                  000190e4    00000004     mss_per4ft.oer4ft (.const:ti_sysbios_knl_Task_defaultStackSize__C)
                  000190e8    00000004     mss_per4ft.oer4ft (.const:ti_sysbios_knl_Task_numConstructedTasks__C)
                  000190ec    00000004     mss_per4ft.oer4ft (.const:ti_sysbios_timers_rti_Timer_E_cannotSupport__C)
                  000190f0    00000004     mss_per4ft.oer4ft (.const:ti_sysbios_timers_rti_Timer_Module__diagsEnabled__C)
                  000190f4    00000004     mss_per4ft.oer4ft (.const:ti_sysbios_timers_rti_Timer_Module__diagsIncluded__C)
                  000190f8    00000004     mss_per4ft.oer4ft (.const:ti_sysbios_timers_rti_Timer_Module__diagsMask__C)
                  000190fc    00000004     mss_per4ft.oer4ft (.const:ti_sysbios_timers_rti_Timer_numTimerDevices__C)
                  00019100    00000004     mss_per4ft.oer4ft (.const:ti_sysbios_timers_rti_Timer_startupNeeded__C)
                  00019104    00000004     mss_per4ft.oer4ft (.const:xdc_runtime_Assert_E_assertFailed__C)
                  00019108    00000004     mss_per4ft.oer4ft (.const:xdc_runtime_Core_A_initializedParams__C)
                  0001910c    00000004     mss_per4ft.oer4ft (.const:xdc_runtime_Core_Module__diagsEnabled__C)
                  00019110    00000004     mss_per4ft.oer4ft (.const:xdc_runtime_Core_Module__diagsIncluded__C)
                  00019114    00000004     mss_per4ft.oer4ft (.const:xdc_runtime_Core_Module__diagsMask__C)
                  00019118    00000004     mss_per4ft.oer4ft (.const:xdc_runtime_Error_E_memory__C)
                  0001911c    00000004     mss_per4ft.oer4ft (.const:xdc_runtime_Error_policyFxn__C)
                  00019120    00000004     mss_per4ft.oer4ft (.const:xdc_runtime_Error_policy__C)
                  00019124    00000004     mss_per4ft.oer4ft (.const:xdc_runtime_Error_raiseHook__C)
                  00019128    00000004     mss_per4ft.oer4ft (.const:xdc_runtime_IGateProvider_Interface__BASE__C)
                  0001912c    00000004     mss_per4ft.oer4ft (.const:xdc_runtime_IHeap_Interface__BASE__C)
                  00019130    00000004     mss_per4ft.oer4ft (.const:xdc_runtime_IModule_Interface__BASE__C)
                  00019134    00000004     mss_per4ft.oer4ft (.const:xdc_runtime_Main_Module__diagsEnabled__C)
                  00019138    00000004     mss_per4ft.oer4ft (.const:xdc_runtime_Main_Module__diagsIncluded__C)
                  0001913c    00000004     mss_per4ft.oer4ft (.const:xdc_runtime_Main_Module__diagsMask__C)
                  00019140    00000004     mss_per4ft.oer4ft (.const:xdc_runtime_Main_Module__loggerFxn1__C)
                  00019144    00000004     mss_per4ft.oer4ft (.const:xdc_runtime_Main_Module__loggerFxn2__C)
                  00019148    00000004     mss_per4ft.oer4ft (.const:xdc_runtime_Main_Module__loggerFxn4__C)
                  0001914c    00000004     mss_per4ft.oer4ft (.const:xdc_runtime_Main_Module__loggerObj__C)
                  00019150    00000004     mss_per4ft.oer4ft (.const:xdc_runtime_Memory_defaultHeapInstance__C)
                  00019154    00000004     mss_per4ft.oer4ft (.const:xdc_runtime_Startup_execImpl__C)
                  00019158    00000004     mss_per4ft.oer4ft (.const:xdc_runtime_Startup_maxPasses__C)
                  0001915c    00000004     mss_per4ft.oer4ft (.const:xdc_runtime_Startup_sfxnRts__C)
                  00019160    00000004     mss_per4ft.oer4ft (.const:xdc_runtime_Startup_sfxnTab__C)
                  00019164    00000004     mss_per4ft.oer4ft (.const:xdc_runtime_System_Module__gateObj__C)
                  00019168    00000004     mss_per4ft.oer4ft (.const:xdc_runtime_System_abortFxn__C)
                  0001916c    00000004     mss_per4ft.oer4ft (.const:xdc_runtime_System_exitFxn__C)
                  00019170    00000004     mss_per4ft.oer4ft (.const:xdc_runtime_System_extendFxn__C)
                  00019174    00000004     mss_per4ft.oer4ft (.const:xdc_runtime_System_maxAtexitHandlers__C)
                  00019178    00000004     mss_per4ft.oer4ft (.const:xdc_runtime_Text_charTab__C)
                  0001917c    00000004     mss_per4ft.oer4ft (.const:xdc_runtime_Text_nameEmpty__C)
                  00019180    00000004     mss_per4ft.oer4ft (.const:xdc_runtime_Text_nameStatic__C)
                  00019184    00000004     mss_per4ft.oer4ft (.const:xdc_runtime_Text_nameUnknown__C)
                  00019188    00000004     mss_per4ft.oer4ft (.const:xdc_runtime_Text_nodeTab__C)
                  0001918c    00000004     mss_per4ft.oer4ft (.const:xdc_runtime_Text_visitRopeFxn__C)
                  00019190    00000002     mss_per4ft.oer4ft (.const:ti_sysbios_family_arm_v7r_tms570_Core_Module__id__C)
                  00019192    00000002     mss_per4ft.oer4ft (.const:ti_sysbios_family_arm_v7r_vim_Hwi_Module__id__C)
                  00019194    00000002     mss_per4ft.oer4ft (.const:ti_sysbios_gates_GateMutex_Module__id__C)
                  00019196    00000002     mss_per4ft.oer4ft (.const:ti_sysbios_hal_Hwi_Module__id__C)
                  00019198    00000002     mss_per4ft.oer4ft (.const:ti_sysbios_heaps_HeapMem_Module__id__C)
                  0001919a    00000002     mss_per4ft.oer4ft (.const:ti_sysbios_knl_Semaphore_Module__id__C)
                  0001919c    00000002     mss_per4ft.oer4ft (.const:ti_sysbios_knl_Task_Module__id__C)
                  0001919e    00000002     mss_per4ft.oer4ft (.const:ti_sysbios_timers_rti_Timer_Module__id__C)
                  000191a0    00000002     mss_per4ft.oer4ft (.const:ti_sysbios_timers_rti_Timer_continueOnSuspend__C)
                  000191a2    00000002     mss_per4ft.oer4ft (.const:xdc_runtime_Core_Module__id__C)
                  000191a4    00000002     mss_per4ft.oer4ft (.const:xdc_runtime_Error_maxDepth__C)
                  000191a6    00000002     mss_per4ft.oer4ft (.const:xdc_runtime_Main_Module__id__C)
                  000191a8    00000002     mss_per4ft.oer4ft (.const:xdc_runtime_Main_Module__loggerDefined__C)
                  000191aa    00000002     mss_per4ft.oer4ft (.const:xdc_runtime_Memory_Module__id__C)
                  000191ac    00000002     mss_per4ft.oer4ft (.const:xdc_runtime_Text_charCnt__C)
                  000191ae    00000002     mss_per4ft.oer4ft (.const:xdc_runtime_Text_isLoaded__C)
                  000191b0    00000002     mss_per4ft.oer4ft (.const:xdc_runtime_Text_registryModsLastId__C)
                  000191b2    00000002     mss_per4ft.oer4ft (.const:xdc_runtime_Text_unnamedModsLastId__C)

.cinit     0    000191b8    00000438     
                  000191b8    000003df     (.cinit..data.load) [load image, compression = lzss]
                  00019597    00000001     --HOLE-- [fill = 0]
                  00019598    0000000c     (__TI_handler_table)
                  000195a4    00000004     --HOLE-- [fill = 0]
                  000195a8    00000008     (.cinit..MCPILogBuffer.load) [load image, compression = zero_init]
                  000195b0    00000008     (.cinit..bss.load) [load image, compression = zero_init]
                  000195b8    00000008     (.cinit..l3ram.load) [load image, compression = zero_init]
                  000195c0    00000008     (.cinit..tcmbHeap.load) [load image, compression = zero_init]
                  000195c8    00000028     (__TI_cinit_table)

.bss       0    08014000    00011a3c     UNINITIALIZED
                  08014000    00010000     (.common:ti_sysbios_heaps_HeapMem_Instance_State_0_buf__A)
                  08024000    00001000     (.common:ti_sysbios_family_arm_exc_Exception_Module_State_0_excStack_0__A)
                  08025000    00000400     mss_per4ft.oer4ft (.bss:taskStackSection)
                  08025400    00000400     (.common:ti_sysbios_family_arm_v7r_vim_Hwi_Module_State_0_fiqStack__A)
                  08025800    00000120     rtsv7R4_T_le_v3D16_eabi.lib : trgmsg.obj (.bss:_CIOBUF_)
                  08025920    000000a0     (.common:__TI_tmpnams)
                  080259c0    00000070     (.common:gEsmMCB)
                  08025a30    00000008     (.common:parmbuf)
                  08025a38    00000004     (.common:gObjDetObj)

.data      0    08025a40    00002990     UNINITIALIZED
                  08025a40    00001894     main.oer4f (.data:$O1$$)
                  080272d4    0000070c     libedma_xwr18xx.aer4f : edma.oer4f (.data:$O1$$)
                  080279e0    00000200     mss_per4ft.oer4ft (.data:ti_sysbios_family_arm_v7r_vim_Hwi_Module_State_0_dispatchTable__A)
                  08027be0    000000f0     rtsv7R4_T_le_v3D16_eabi.lib : defs.obj (.data:_ftable)
                  08027cd0    00000080     mss_per4ft.oer4ft (.data:ti_sysbios_knl_Swi_Module_State_0_readyQ__A)
                  08027d50    00000080     mss_per4ft.oer4ft (.data:ti_sysbios_knl_Task_Module_State_0_readyQ__A)
                  08027dd0    00000078     rtsv7R4_T_le_v3D16_eabi.lib : write.obj (.data:_device)
                  08027e48    0000005c     mss_per4ft.oer4ft (.data:ti_sysbios_knl_Task_Object__table__V)
                  08027ea4    00000050     rtsv7R4_T_le_v3D16_eabi.lib : write.obj (.data:_stream)
                  08027ef4    00000050     libmailbox_xwr18xx.aer4f : mailbox.oer4f (.data:gMailboxMCB)
                  08027f44    00000048     mss_per4ft.oer4ft (.data:ti_sysbios_knl_Task_Module__state__V)
                  08027f8c    00000040     libsoc_xwr18xx.aer4f : soc_xwr18xx.oer4f (.data:SOC_TranslateAddr_LUT)
                  08027fcc    00000040     mss_per4ft.oer4ft (.data:ti_sysbios_gates_GateMutex_Object__table__V)
                  0802800c    0000003c     mss_per4ft.oer4ft (.data:ti_sysbios_timers_rti_Timer_Object__table__V)
                  08028048    00000034     mss_per4ft.oer4ft (.data:ti_sysbios_family_arm_v7r_vim_Hwi_Module__state__V)
                  0802807c    00000030     libhwa_xwr18xx.aer4f : hwa_xwr18xx.oer4f (.data:gHWAHwCfg)
                  080280ac    00000030     mss_per4ft.oer4ft (.data:ti_sysbios_knl_Swi_Object__table__V)
                  080280dc    0000002c     mss_per4ft.oer4ft (.data:ti_sysbios_family_arm_v7r_vim_Hwi_Object__table__V)
                  08028108    0000002c     mss_per4ft.oer4ft (.data:ti_sysbios_knl_Clock_Module__state__V)
                  08028134    00000024     objectdetection.oer4f (.data:gDPC_ObjectDetectionCfg)
                  08028158    00000024     mss_per4ft.oer4ft (.data:ti_sysbios_BIOS_Module__state__V)
                  0802817c    00000004     antenna_geometry.oer4f (.data)
                  08028180    00000020     libsoc_xwr18xx.aer4f : soc_xwr18xx_mss.oer4f (.data:gSOCHwAttrib)
                  080281a0    00000020     mss_per4ft.oer4ft (.data:xdc_runtime_Error_IgnoreBlock)
                  080281c0    00000020     mss_per4ft.oer4ft (.data:xdc_runtime_System_Module_State_0_atexitHandlers__A)
                  080281e0    0000001c     antenna_geometry.oer4f (.data:gAntDef_AWR1843AOP)
                  080281fc    0000001c     mss_per4ft.oer4ft (.data:ti_sysbios_knl_Swi_Module__state__V)
                  08028218    00000018     libmailbox_xwr18xx.aer4f : mailbox_xwr18xx.oer4f (.data:gMailboxMssBssHwCfg)
                  08028230    00000018                              : mailbox_xwr18xx.oer4f (.data:gMailboxMssDssHwCfg)
                  08028248    00000018     mss_per4ft.oer4ft (.data:ti_sysbios_heaps_HeapMem_Object__table__V)
                  08028260    00000018     mss_per4ft.oer4ft (.data:ti_sysbios_timers_rti_Timer_Module_State_0_device__A)
                  08028278    00000014     libdpm_xwr18xx.aer4f : dpm_mailbox.oer4f (.data:gDPMRemoteTable)
                  0802828c    00000014     mss_per4ft.oer4ft (.data:ti_sysbios_family_arm_exc_Exception_Module__state__V)
                  080282a0    00000010     gen_frame_data.oer4f (.data:$O1$$)
                  080282b0    00000010     libhwa_xwr18xx.aer4f : hwa.oer4f (.data:gHwaEDMAChanMapping)
                  080282c0    00000010     rtsv7R4_T_le_v3D16_eabi.lib : defs.obj (.data)
                  080282d0    00000010     mss_per4ft.oer4ft (.data:ti_sysbios_timers_rti_Timer_Module_State_0_intFreqs__A)
                  080282e0    00000010     mss_per4ft.oer4ft (.data:ti_sysbios_timers_rti_Timer_Module__state__V)
                  080282f0    0000000c     libtestlogger_xwr18xx.aer4f : logger.oer4f (.data:$O1$$)
                  080282fc    0000000c     rtsv7R4_T_le_v3D16_eabi.lib : exit.obj (.data:$O1$$)
                  08028308    0000000c     libesm_xwr18xx.aer4f : esm_xwr1xxx.oer4f (.data:gESMHwCfgAttrs)
                  08028314    0000000c     mss_per4ft.oer4ft (.data:ti_sysbios_family_arm_v7a_Pmu_Module__state__V)
                  08028320    00000008     rtsv7R4_T_le_v3D16_eabi.lib : _lock.obj (.data:$O1$$)
                  08028328    00000008     libdpm_xwr18xx.aer4f : dpm_xwr18xx.oer4f (.data:gDPMHwAttrib)
                  08028330    00000008     mss_per4ft.oer4ft (.data:ti_sysbios_family_arm_v7r_vim_Hwi_Module__root__V)
                  08028338    00000008     mss_per4ft.oer4ft (.data:ti_sysbios_gates_GateHwi_Module__root__V)
                  08028340    00000008     mss_per4ft.oer4ft (.data:ti_sysbios_gates_GateMutex_Module__root__V)
                  08028348    00000008     mss_per4ft.oer4ft (.data:ti_sysbios_hal_Hwi_Object__table__V)
                  08028350    00000008     mss_per4ft.oer4ft (.data:ti_sysbios_heaps_HeapMem_Module__root__V)
                  08028358    00000008     mss_per4ft.oer4ft (.data:ti_sysbios_knl_Queue_Module__root__V)
                  08028360    00000008     mss_per4ft.oer4ft (.data:ti_sysbios_knl_Semaphore_Module__root__V)
                  08028368    00000008     mss_per4ft.oer4ft (.data:ti_sysbios_knl_Task_Module__root__V)
                  08028370    00000008     mss_per4ft.oer4ft (.data:ti_sysbios_timers_rti_Timer_Module_State_0_handles__A)
                  08028378    00000008     mss_per4ft.oer4ft (.data:xdc_runtime_Registry_Module__state__V)
                  08028380    00000008     mss_per4ft.oer4ft (.data:xdc_runtime_Startup_Module__state__V)
                  08028388    00000008     mss_per4ft.oer4ft (.data:xdc_runtime_System_Module__state__V)
                  08028390    00000004     libhwa_xwr18xx.aer4f : hwa_xwr18xx.oer4f (.data:gHWADriverPtr)
                  08028394    00000004     libdpm_xwr18xx.aer4f : dpm_mailbox.oer4f (.data)
                  08028398    00000004     libedma_xwr18xx.aer4f : edma_low_level.oer4f (.data)
                  0802839c    00000004     main.oer4f (.data)
                  080283a0    00000004     rtsv7R4_T_le_v3D16_eabi.lib : errno.obj (.data)
                  080283a4    00000004                                 : fopen.obj (.data)
                  080283a8    00000004                                 : open.obj (.data)
                  080283ac    00000004                                 : stkdepth_vars.obj (.data)
                  080283b0    00000004     mss_per4ft.oer4ft (.data:ti_sysbios_family_arm_exc_Exception_Module_State_0_excContext__A)
                  080283b4    00000004     mss_per4ft.oer4ft (.data:ti_sysbios_family_arm_exc_Exception_Module_State_0_excStackBuffers__A)
                  080283b8    00000004     mss_per4ft.oer4ft (.data:ti_sysbios_family_arm_exc_Exception_Module_State_0_excStack__A)
                  080283bc    00000004     mss_per4ft.oer4ft (.data:ti_sysbios_gates_GateHwi_Object__table__V)
                  080283c0    00000004     mss_per4ft.oer4ft (.data:ti_sysbios_heaps_HeapBuf_Module__state__V)
                  080283c4    00000004     mss_per4ft.oer4ft (.data:ti_sysbios_knl_Task_Module_State_0_idleTask__A)
                  080283c8    00000004     mss_per4ft.oer4ft (.data:xdc_runtime_Memory_Module__state__V)
                  080283cc    00000002     mss_per4ft.oer4ft (.data:ti_sysbios_family_arm_exc_Exception_Module_State_0_excActive__A)
                  080283ce    00000002     mss_per4ft.oer4ft (.data:xdc_runtime_Error_Module__state__V)

.stack     0    0802a7d0    00001000     UNINITIALIZED
                  0802a7d0    00001000     --HOLE--

.MCPILogBuffer 
*          0    080283d0    00002400     UNINITIALIZED
                  080283d0    00002400     main.oer4f (.MCPILogBuffer)

.l3ram     0    51000000    00100000     UNINITIALIZED
                  51000000    00100000     main.oer4f (.l3ram)

.tcmbHeap 
*          0    08000000    00014000     UNINITIALIZED
                  08000000    00014000     main.oer4f (.tcmbHeap)

MODULE SUMMARY

       Module                          code    ro data   rw data
       ------                          ----    -------   -------
    /home/lte_phy/Desktop/Kalyan/Gen1/68xx_safe_secure/mmwave_sdk/ti/datapath/dpc/objectdetection/objdethwa/test/mss_configPkg_xwr18xxAOP/package/cfg/
       mss_per4ft.oer4ft               1760    8761      73292  
    +--+-------------------------------+-------+---------+---------+
       Total:                          1760    8761      73292  
                                                                
    obj_xwr18xxAOP/
       main.oer4f                      7514    0         1146008
       objectdetection.oer4f           7372    0         40     
       gen_frame_data.oer4f            1216    0         16     
       antenna_geometry.oer4f          0       0         32     
    +--+-------------------------------+-------+---------+---------+
       Total:                          16102   0         1146096
                                                                
    /home/lte_phy/Desktop/Kalyan/Gen1/68xx_safe_secure/mmwave_sdk/scripts/jenkins/../../ti/control/dpm/lib/libdpm_xwr18xx.aer4f
       dpm_msg.oer4f                   1134    40        0      
       dpm_core.oer4f                  1076    0         0      
       dpm_mailbox.oer4f               362     0         24     
       dpm_pipe.oer4f                  312     0         0      
       dpm_listlib.oer4f               86      0         0      
       dpm_xwr18xx.oer4f               0       0         8      
    +--+-------------------------------+-------+---------+---------+
       Total:                          2970    40        32     
                                                                
    /home/lte_phy/Desktop/Kalyan/Gen1/68xx_safe_secure/mmwave_sdk/scripts/jenkins/../../ti/datapath/dpc/dpu/aoa2dproc/lib/libaoa2dproc_hwa_xwr18xx.aer4f
       aoa2dprochwa.oer4f              8772    0         0      
    +--+-------------------------------+-------+---------+---------+
       Total:                          8772    0         0      
                                                                
    /home/lte_phy/Desktop/Kalyan/Gen1/68xx_safe_secure/mmwave_sdk/scripts/jenkins/../../ti/datapath/dpc/dpu/cfarcaproc/lib/libcfarcaproc_hwa_xwr18xx.aer4f
       cfarcaprochwa.oer4f             2302    0         0      
    +--+-------------------------------+-------+---------+---------+
       Total:                          2302    0         0      
                                                                
    /home/lte_phy/Desktop/Kalyan/Gen1/68xx_safe_secure/mmwave_sdk/scripts/jenkins/../../ti/datapath/dpc/dpu/dopplerproc/lib/libdopplerproc_hwa_xwr18xx.aer4f
       dopplerprochwa.oer4f            2132    0         0      
    +--+-------------------------------+-------+---------+---------+
       Total:                          2132    0         0      
                                                                
    /home/lte_phy/Desktop/Kalyan/Gen1/68xx_safe_secure/mmwave_sdk/scripts/jenkins/../../ti/datapath/dpc/dpu/staticclutterproc/lib/libstaticclutterproc_xwr18xx.aer4f
       staticclutterproc.oer4f         948     0         0      
    +--+-------------------------------+-------+---------+---------+
       Total:                          948     0         0      
                                                                
    /home/lte_phy/Desktop/Kalyan/Gen1/68xx_safe_secure/mmwave_sdk/scripts/jenkins/../../ti/datapath/dpedma/lib/libdpedma_hwa_xwr18xx.aer4f
       dpedma.oer4f                    610     0         0      
       dpedmahwa.oer4f                 436     0         0      
    +--+-------------------------------+-------+---------+---------+
       Total:                          1046    0         0      
                                                                
    /home/lte_phy/Desktop/Kalyan/Gen1/68xx_safe_secure/mmwave_sdk/scripts/jenkins/../../ti/datapath/dpu/rangeproc/lib/librangeproc_hwa_xwr18xx.aer4f
       rangeprochwa.oer4f              4982    0         0      
    +--+-------------------------------+-------+---------+---------+
       Total:                          4982    0         0      
                                                                
    /home/lte_phy/Desktop/Kalyan/Gen1/68xx_safe_secure/mmwave_sdk/scripts/jenkins/../../ti/drivers/edma/lib/libedma_xwr18xx.aer4f
       edma.oer4f                      4815    16        1804   
       edma_low_level.oer4f            882     0         4      
       edma_xwr1xxx.oer4f              0       56        0      
    +--+-------------------------------+-------+---------+---------+
       Total:                          5697    72        1808   
                                                                
    /home/lte_phy/Desktop/Kalyan/Gen1/68xx_safe_secure/mmwave_sdk/scripts/jenkins/../../ti/drivers/esm/lib/libesm_xwr18xx.aer4f
       esm.oer4f                       456     0         112    
       esm_xwr1xxx.oer4f               0       0         12     
    +--+-------------------------------+-------+---------+---------+
       Total:                          456     0         124    
                                                                
    /home/lte_phy/Desktop/Kalyan/Gen1/68xx_safe_secure/mmwave_sdk/scripts/jenkins/../../ti/drivers/hwa/lib/libhwa_xwr18xx.aer4f
       hwa.oer4f                       4302    96        16     
       hwa_xwr18xx.oer4f               0       0         52     
    +--+-------------------------------+-------+---------+---------+
       Total:                          4302    96        68     
                                                                
    /home/lte_phy/Desktop/Kalyan/Gen1/68xx_safe_secure/mmwave_sdk/scripts/jenkins/../../ti/drivers/mailbox/lib/libmailbox_xwr18xx.aer4f
       mailbox.oer4f                   1732    36        80     
       mailbox_xwr18xx.oer4f           0       0         48     
    +--+-------------------------------+-------+---------+---------+
       Total:                          1732    36        128    
                                                                
    /home/lte_phy/Desktop/Kalyan/Gen1/68xx_safe_secure/mmwave_sdk/scripts/jenkins/../../ti/drivers/osal/lib/libosal_xwr18xx.aer4f
       DebugP_tirtos.oer4f             292     0         0      
       HwiP_tirtos.oer4f               226     0         0      
       SemaphoreP_tirtos.oer4f         150     0         0      
       MemoryP_tirtos.oer4f            36      0         0      
       CycleprofilerP_tirtos.oer4f     26      0         0      
    +--+-------------------------------+-------+---------+---------+
       Total:                          730     0         0      
                                                                
    /home/lte_phy/Desktop/Kalyan/Gen1/68xx_safe_secure/mmwave_sdk/scripts/jenkins/../../ti/drivers/soc/lib/libsoc_xwr18xx.aer4f
       soc_xwr18xx_mss.oer4f           1356    0         32     
       soc.oer4f                       660     0         0      
       soc_xwr18xx.oer4f               374     0         64     
       soc_mpu.o                       182     0         0      
    +--+-------------------------------+-------+---------+---------+
       Total:                          2572    0         96     
                                                                
    /home/lte_phy/Desktop/Kalyan/Gen1/68xx_safe_secure/mmwave_sdk/scripts/jenkins/../../ti/utils/mathutils/lib/libmathutils.aer4f
       mathutils.oer4f                 344     0         0      
    +--+-------------------------------+-------+---------+---------+
       Total:                          344     0         0      
                                                                
    /home/lte_phy/Desktop/Kalyan/Gen1/68xx_safe_secure/mmwave_sdk/scripts/jenkins/../../ti/utils/testlogger/lib/libtestlogger_xwr18xx.aer4f
       logger.oer4f                    344     0         12     
    +--+-------------------------------+-------+---------+---------+
       Total:                          344     0         12     
                                                                
    /home/lte_phy/Desktop/Kalyan/Gen1/68xx_safe_secure/mmwave_sdk/ti/datapath/dpc/objectdetection/objdethwa/test/mss_configPkg_xwr18xxAOP/package/cfg/mss_per4ft.src/sysbios/sysbios.aer4ft
       BIOS.obj                        16743   0         0      
       exc_Exception_asm.obj           308     0         0      
       vim_Hwi_asm.obj                 208     0         0      
       arm_TaskSupport_asm.obj         180     0         0      
       vim_Hwi_asm_switch.obj          152     0         0      
       arm_IntrinsicsSupport_asm.obj   12      0         0      
       tms570_Core_asm.obj             10      0         0      
    +--+-------------------------------+-------+---------+---------+
       Total:                          17613   0         0      
                                                                
    /opt/ti/bios_6_73_01_01/packages/ti/targets/arm/rtsarm/lib/auto_init.aer4ft
       auto_init.oer4ft                160     0         0      
    +--+-------------------------------+-------+---------+---------+
       Total:                          160     0         0      
                                                                
    /opt/ti/bios_6_73_01_01/packages/ti/targets/arm/rtsarm/lib/boot.aer4ft
       boot.oer4ft                     116     0         0      
    +--+-------------------------------+-------+---------+---------+
       Total:                          116     0         0      
                                                                
    /opt/ti/ti-cgt-arm_16.9.6.LTS/lib/rtsv7R4_T_le_v3D16_eabi.lib
       _printfi.obj                    4218    0         0      
       k_rem_pio2.obj                  1532    344       0      
       e_pow.obj                       1668    48        0      
       s_cos.obj                       1012    0         0      
       s_sin.obj                       1012    0         0      
       ll_div32.obj                    748     0         0      
       ull_div32.obj                   696     0         0      
       e_log.obj                       612     0         0      
       fopen.obj                       456     0         4      
       defs.obj                        0       0         416    
       trgmsg.obj                      108     0         288    
       fputs.obj                       312     0         0      
       ctype.obj                       0       257       0      
       fread.obj                       240     0         0      
       write.obj                       40      0         200    
       s_scalbn.obj                    236     0         0      
       s_floor.obj                     224     0         0      
       setvbuf.obj                     220     0         0      
       fflush.obj                      204     0         0      
       open.obj                        188     0         4      
       k_cos.obj                       184     0         0      
       _io_perm.obj                    174     0         0      
       k_sin.obj                       164     0         0      
       _bufread.obj                    156     0         0      
       memcpy_t2.obj                   156     0         0      
       fclose.obj                      152     0         0      
       fputc.obj                       152     0         0      
       snprintf.obj                    148     0         0      
       memset_t2.obj                   122     0         0      
       getdevice.obj                   116     0         0      
       s_frexp.obj                     116     0         0      
       printf.obj                      112     0         0      
       copy_decompress_lzss.obj        108     0         0      
       hostlseek.obj                   104     0         0      
       hostrename.obj                  104     0         0      
       fseek.obj                       100     0         0      
       hostopen.obj                    92      0         8      
       sprintf.obj                     100     0         0      
       exit.obj                        80      0         12     
       hostread.obj                    92      0         0      
       close.obj                       88      0         0      
       hostwrite.obj                   88      0         0      
       ltoa.obj                        84      0         0      
       atoi.obj                        80      0         0      
       u_div32.obj                     80      0         0      
       cpy_tbl.obj                     76      0         0      
       hostclose.obj                   68      0         0      
       hostunlink.obj                  68      0         0      
       strncpy.obj                     54      0         0      
       e_sqrt.obj                      44      0         0      
       unlink.obj                      44      0         0      
       lseek.obj                       40      0         0      
       read.obj                        40      0         0      
       memcmp.obj                      38      0         0      
       memchr.obj                      32      0         0      
       strcat.obj                      30      0         0      
       _lock.obj                       20      0         8      
       memccpy.obj                     28      0         0      
       s_copysign.obj                  26      0         0      
       args_main.obj                   24      0         0      
       ll_mul_t2.obj                   24      0         0      
       strcmp.obj                      24      0         0      
       strchr.obj                      22      0         0      
       strlen.obj                      22      0         0      
       strcpy.obj                      20      0         0      
       copy_decompress_none.obj        14      0         0      
       copy_zero_init.obj              12      0         0      
       errno.obj                       0       0         4      
       stkdepth_vars.obj               0       0         4      
       i_div0.obj                      2       0         0      
       l_div0.obj                      2       0         0      
    +--+-------------------------------+-------+---------+---------+
       Total:                          17452   649       948    
                                                                
       Stack:                          0       0         4096   
       Linker Generated:               0       1075      0      
    +--+-------------------------------+-------+---------+---------+
       Grand Total:                    92532   10729     1226700


LINKER GENERATED COPY TABLES

__TI_cinit_table @ 000195c8 records: 5, size/record: 8, table size: 40
	.data: load addr=000191b8, load size=000003df bytes, run addr=08025a40, run size=00002990 bytes, compression=lzss
	.MCPILogBuffer: load addr=000195a8, load size=00000008 bytes, run addr=080283d0, run size=00002400 bytes, compression=zero_init
	.bss: load addr=000195b0, load size=00000008 bytes, run addr=08014000, run size=00011a3c bytes, compression=zero_init
	.l3ram: load addr=000195b8, load size=00000008 bytes, run addr=51000000, run size=00100000 bytes, compression=zero_init
	.tcmbHeap: load addr=000195c0, load size=00000008 bytes, run addr=08000000, run size=00014000 bytes, compression=zero_init


LINKER GENERATED HANDLER TABLE

__TI_handler_table @ 00019598 records: 3, size/record: 4, table size: 12
	index: 0, handler: __TI_zero_init
	index: 1, handler: __TI_decompress_lzss
	index: 2, handler: __TI_decompress_none


GLOBAL SYMBOLS: SORTED ALPHABETICALLY BY Name 

address   name                                                                 
-------   ----                                                                 
00010c41  AoAProcHWA_ConvertFov                                                
0000d2a5  AoAProcHWA_PrepareRangeAzimuthHeatmap                                
0000fd67  AoAProcHWA_SelectMaxPeaks                                            
0000a76d  AoAProcHWA_XYZestimationAoA2D                                        
00012335  AoAProcHWA_cfgAndTrigger_EDMA_2DFFT                                  
000144c1  AoAProcHWA_findSinglePeak                                            
0000a1c1  AoAProcHWA_peakGrouping                                              
00010ced  AoAProcHWA_rxChanPhaseBiasCompensation                               
000161f1  AoAProcHWA_waitEdma                                                  
0000d769  AoAProc_configLUT                                                    
000143c9  C$$EXIT                                                              
0001311f  C$$IO$$                                                              
00013011  CFARCAHWA_config_EDMA                                                
0000cdd5  CFARHWA_cfarRange_AND_cfarDoppler                                    
000148ab  CFARHWA_convHwaCfarDetListToDetMask                                  
00013a81  CFARHWA_fovConvertDoppler                                            
00015505  CFARHWA_fovConvertRange                                              
0001620f  CFARHWA_isHwaCfarDetected                                            
00013add  CFARHWA_prepareHwaRunTime                                            
00012c8d  CFARHWA_saveConfiguration                                            
000157f1  CFARHWA_triggerCFAR                                                  
0001485b  CycleprofilerP_getTimeStamp                                          
00016847  CycleprofilerP_init                                                  
0000fc9d  DPEDMAHWA_configOneHotSignature                                      
0000ed5d  DPEDMAHWA_configTwoHotSignature                                      
0000e075  DPEDMA_configSyncAB                                                  
0000e4a5  DPEDMA_configSyncA_singleFrame                                       
00014285  DPEDMA_setup_shadow_link                                             
0000fe2d  DPM_deinit                                                           
00013c4d  DPM_execute                                                          
0000b849  DPM_init                                                             
0000fef1  DPM_ioctl                                                            
00016439  DPM_listAdd                                                          
00016087  DPM_listCat                                                          
000162f7  DPM_listRemove                                                       
00015b75  DPM_msgInitHeader                                                    
0000b9c9  DPM_msgRecv                                                          
000152d5  DPM_notifyExecute                                                    
00015af7  DPM_pipeDeinit                                                       
000158d7  DPM_pipeInit                                                         
000148f3  DPM_pipeRecv                                                         
000126d1  DPM_pipeSend                                                         
00014aa5  DPM_start                                                            
00014ae9  DPM_stop                                                             
0000a591  DPU_AoAProcHWA_config                                                
00011869  DPU_AoAProcHWA_control                                               
00016315  DPU_AoAProcHWA_deinit                                                
0000934d  DPU_AoAProcHWA_getNumHwaParamSets                                    
0000ea8d  DPU_AoAProcHWA_init                                                  
000058ad  DPU_AoAProcHWA_process                                               
0000cf09  DPU_CFARCAProcHWA_config                                             
0000f019  DPU_CFARCAProcHWA_control                                            
000165bd  DPU_CFARCAProcHWA_deinit                                             
000123bd  DPU_CFARCAProcHWA_init                                               
0000b539  DPU_CFARCAProcHWA_process                                            
00002231  DPU_DopplerProcHWA_config                                            
000165d5  DPU_DopplerProcHWA_deinit                                            
0000f479  DPU_DopplerProcHWA_init                                              
0000ee49  DPU_DopplerProcHWA_process                                           
00005471  DPU_RangeProcHWA_config                                              
0000f7c9  DPU_RangeProcHWA_control                                             
00015b9d  DPU_RangeProcHWA_deinit                                              
000102e5  DPU_RangeProcHWA_init                                                
000045dd  DPU_RangeProcHWA_process                                             
0001450d  DPU_StaticClutterProc_config                                         
0000c3b5  DPU_StaticClutterProc_configEdma                                     
00016331  DPU_StaticClutterProc_deinit                                         
00015905  DPU_StaticClutterProc_init                                           
0000b3ad  DPU_StaticClutterProc_process                                        
00015d29  DPU_StaticClutterProc_waitInData                                     
00015d4f  DPU_StaticClutterProc_waitOutData                                    
00013cfd  DebugP_log0                                                          
00013d55  DebugP_log1                                                          
00013895  DebugP_log2                                                          
0000a945  EDMA3ChannelToParamMap                                               
00014ccb  EDMA3ClrCCErr                                                        
00015dc9  EDMA3ClrEvt                                                          
00015ded  EDMA3ClrIntr                                                         
0001530d  EDMA3ClrMissEvt                                                      
00015e11  EDMA3DisableDmaEvt                                                   
00015e35  EDMA3DisableEvtIntr                                                  
000165ed  EDMA3DisableQdmaEvt                                                  
00013dad  EDMA3EnableChInShadowReg                                             
00015e59  EDMA3EnableDmaEvt                                                    
00015e7d  EDMA3EnableEvtIntr                                                   
00016605  EDMA3EnableQdmaEvt                                                   
00014d15  EDMA3ErrIntrHighStatusGet                                            
00014d1b  EDMA3GetCCErrStatus                                                  
00014ea9  EDMA3GetErrIntrStatus                                                
0001685d  EDMA3GetIntrStatus                                                   
00010ef1  EDMA3Init                                                            
00016871  EDMA3IntrStatusHighGet                                               
000142d7  EDMA3MapChToEvtQ                                                     
00016885  EDMA3MapQdmaChToPaRAM                                                
000160a9  EDMA3QdmaClrMissEvt                                                  
00015345  EDMA3QdmaGetErrIntrStatus                                            
00015ea1  EDMA3SetEvt                                                          
000164a1  EDMA3SetPaRAM                                                        
00016939  EDMA3SetQdmaTrigWord                                                 
000138f5  EDMA_close                                                           
000099bd  EDMA_configChannel                                                   
0000de4d  EDMA_configErrorMonitoring                                           
0000e5a9  EDMA_configParamSet                                                  
00014559  EDMA_disableChannel                                                  
000145a5  EDMA_enableChannel                                                   
0000e28d  EDMA_getNumInstances                                                 
0000dc09  EDMA_init                                                            
00012abd  EDMA_isTransferComplete                                              
00014b2d  EDMA_linkParamSets                                                   
0000aeb9  EDMA_open                                                            
000155d5  EDMA_setDestinationAddress                                           
0000c4fd  EDMA_setSourceAddress                                                
00013495  EDMA_startDmaTransfer                                                
00010755  EDMA_startTransfer                                                   
0000c8d5  EDMAsetRegion                                                        
00013e05  ESM_highpriority_FIQ                                                 
00011041  ESM_init                                                             
000160c9  ESM_lowpriority_IRQ                                                  
00010d99  ESM_processInterrupt                                                 
0001052d  GaussianNoise                                                        
00014bf9  HOSTclose                                                            
00013361  HOSTlseek                                                            
00013b39  HOSTopen                                                             
00013b95  HOSTread                                                             
000133c9  HOSTrename                                                           
00014c3d  HOSTunlink                                                           
00013f65  HOSTwrite                                                            
00012d71  HWA_close                                                            
0000979d  HWA_configCommon                                                     
000028a1  HWA_configParamSet                                                   
00011b5f  HWA_configRam                                                        
000153f5  HWA_disableDoneInterrupt                                             
000122ad  HWA_disableParamSetInterrupt                                         
000150a7  HWA_enable                                                           
000145f1  HWA_enableDoneInterrupt                                              
0000fa35  HWA_enableParamSetInterrupt                                          
0001584d  HWA_getCfarPeakCntRegAddress                                         
000134f9  HWA_getDMAChanIndex                                                  
00013e5d  HWA_getDMAconfig                                                     
00014e29  HWA_getHWAMemInfo                                                    
0000117b  HWA_init                                                             
0000b6c1  HWA_open                                                             
00014985  HWA_readCFARPeakCountReg                                             
00014da7  HWA_reset                                                            
0001525d  HWA_setDMA2ACCManualTrig                                             
0000d511  HWAutil_configCFAR                                                   
00016899  HwiP_Params_init                                                     
00012651  HwiP_create                                                          
00015299  HwiP_delete                                                          
0000c789  HwiP_disable                                                         
0000e6ad  HwiP_disableInterrupt                                                
0000fbcd  HwiP_enableInterrupt                                                 
0001534b  HwiP_restore                                                         
080282f4  MCPI_FailSignature                                                   
00015ee9  MCPI_Initialize                                                      
080282f0  MCPI_Result                                                          
080283d0  MCPI_logMessage                                                      
0000dd2d  MCPI_setFeatureTestResult                                            
000168ad  MCPI_setTestResult                                                   
00015bc5  Mailbox_Config_init                                                  
00011db1  Mailbox_close                                                        
00018d4c  Mailbox_defaultCfg                                                   
000085d5  Mailbox_open                                                         
0000f54d  Mailbox_read                                                         
00013229  Mailbox_readFlush                                                    
0000e39d  Mailbox_write                                                        
0001694b  MemoryP_ctrlAlloc                                                    
00012545  MemoryP_ctrlFree                                                     
00011189  MemoryP_getStats                                                     
00009579  ObjectDetection_Test_CompareToRef                                    
00011bf5  ObjectDetection_Test_DPCDeinit                                       
0000d03d  ObjectDetection_Test_DPCInit                                         
000149cd  ObjectDetection_Test_EDMA_errorCallbackFxn                           
00014a15  ObjectDetection_Test_EDMA_transferControllerErrorCallbackFxn         
00008cbd  ObjectDetection_Test_configDPC                                       
0000c269  ObjectDetection_Test_convertCoordinates                              
000167a9  ObjectDetection_Test_deinitComponents                                
000167bf  ObjectDetection_Test_edmaClose                                       
0001355d  ObjectDetection_Test_edmaInit                                        
0000e8ad  ObjectDetection_Test_edmaOpen                                        
00015f0d  ObjectDetection_Test_getChirpData                                    
00014329  ObjectDetection_Test_hwaClose                                        
00013eb5  ObjectDetection_Test_hwaOpen                                         
00014e69  ObjectDetection_Test_initComponents                                  
000169a5  ObjectDetection_Test_initGenerator                                   
0000f39d  ObjectDetection_Test_printAndCheckResults                            
00014069  ObjectDetection_Test_setCommonProfile                                
00006a95  ObjectDetection_Test_setProfile                                      
00011ed1  ObjectDetection_Test_startDPC                                        
00011f5d  ObjectDetection_Test_stopDPC                                         
0000117d  ObjectDetection_Test_task                                            
00011235  ObjectDetection_Test_trigFrameStart                                  
00015605  RandSimple                                                           
UNDEFED   SHT$$INIT_ARRAY$$Base                                                
UNDEFED   SHT$$INIT_ARRAY$$Limit                                               
0001070f  SOC_MPUAreRegionsSeparate                                            
000106bb  SOC_MPUDisable                                                       
000106ef  SOC_MPUDisableBackgroundRegion                                       
0001069d  SOC_MPUEnable                                                        
000106d9  SOC_MPUEnableBackgroundRegion                                        
00010705  SOC_MPUGetNumberOfRegions                                            
0001071d  SOC_MPUGetRegion                                                     
00010729  SOC_MPUGetRegionBaseAddress                                          
00010743  SOC_MPUGetRegionPermission                                           
00010739  SOC_MPUGetRegionType                                                 
00010717  SOC_MPUSetRegion                                                     
00010723  SOC_MPUSetRegionBaseAddress                                          
0001074d  SOC_MPUSetRegionSizeRegister                                         
0001072f  SOC_MPUSetRegionTypeAndPermission                                    
00015b21  SOC_SystemISR                                                        
08027f8c  SOC_TranslateAddr_LUT                                                
00010f99  SOC_deregisterSysIntListener                                         
00006489  SOC_deviceInit                                                       
00015429  SOC_enableHWA                                                        
0001634d  SOC_getInAddr_LUTType                                                
0001624b  SOC_getOutAddr_LUTType                                               
00011fe9  SOC_init                                                             
00015f31  SOC_isDSSOperational                                                 
000112d5  SOC_registerSysIntListener                                           
00014bb5  SOC_resetDMA                                                         
0001545d  SOC_setMSSLinkState                                                  
00012075  SOC_translateAddress                                                 
000108bd  SOC_ungateClock                                                      
000150e5  SOC_unhaltBSS                                                        
00014225  SemaphoreP_Params_init                                               
000135c1  SemaphoreP_create                                                    
0000bfa3  SemaphoreP_delete                                                    
0001695d  SemaphoreP_pend                                                      
00012845  SemaphoreP_post                                                      
00012845  SemaphoreP_postFromClock                                             
00012845  SemaphoreP_postFromISR                                               
0001587b  _DPC_Objdet_Assert                                                   
000168c1  _DebugP_assert                                                       
00000000  __ASM__                                                              
08025800  __CIOBUF_                                                            
000000ab  __ISA__                                                              
000000bd  __PLAT__                                                             
0802b7d0  __STACK_END                                                          
00001000  __STACK_SIZE                                                         
000000e1  __TARG__                                                             
000195c8  __TI_CINIT_Base                                                      
000195f0  __TI_CINIT_Limit                                                     
00019598  __TI_Handler_Table_Base                                              
000195a4  __TI_Handler_Table_Limit                                             
00011375  __TI_auto_init                                                       
00011415  __TI_buff_read                                                       
0000abf3  __TI_cleanup                                                         
080282fc  __TI_cleanup_ptr                                                     
00011901  __TI_closefile                                                       
0001307f  __TI_decompress_lzss                                                 
00016ad1  __TI_decompress_none                                                 
0000fb01  __TI_doflush                                                         
08028300  __TI_dtors_ptr                                                       
08028304  __TI_enable_exit_profile_output                                      
080282c0  __TI_ft_end                                                          
ffffffff  __TI_pprof_out_hndl                                                  
000008c5  __TI_printfi                                                         
ffffffff  __TI_prof_data_size                                                  
ffffffff  __TI_prof_data_start                                                 
00010bf5  __TI_rd_ok                                                           
00013123  __TI_readmsg                                                         
00000000  __TI_static_base__                                                   
08025920  __TI_tmpnams                                                         
000130ed  __TI_writemsg                                                        
00010b91  __TI_wrt_ok                                                          
0000ec65  __TI_zero_init                                                       
00000108  __TRDR__                                                             
00005023  __aeabi_idiv0                                                        
00009fcf  __aeabi_ldiv0                                                        
00006d8c  __aeabi_ldivmod                                                      
0001667d  __aeabi_lmul                                                         
000129cd  __aeabi_memclr                                                       
000129cd  __aeabi_memclr4                                                      
000129cd  __aeabi_memclr8                                                      
000114b1  __aeabi_memcpy                                                       
000114b1  __aeabi_memcpy4                                                      
000114b1  __aeabi_memcpy8                                                      
000129cf  __aeabi_memset                                                       
000129cf  __aeabi_memset4                                                      
000129cf  __aeabi_memset8                                                      
080282cc  __aeabi_stderr                                                       
080282c4  __aeabi_stdin                                                        
080282c8  __aeabi_stdout                                                       
00014418  __aeabi_uidiv                                                        
00014418  __aeabi_uidivmod                                                     
000078f0  __aeabi_uldivmod                                                     
ffffffff  __binit__                                                            
ffffffff  __c_args__                                                           
000105e5  __kernel_cos                                                         
00002ef9  __kernel_rem_pio2                                                    
000110e5  __kernel_sin                                                         
0802a7d0  __stack                                                              
00016665  _args_main                                                           
00012b30  _c_int00                                                             
00018900  _ctypes_                                                             
08027dd0  _device                                                              
08027be0  _ftable                                                              
08028320  _lock                                                                
000168f7  _nop                                                                 
000168ef  _register_lock                                                       
000168e9  _register_unlock                                                     
08027ea4  _stream                                                              
08028324  _unlock                                                              
000143cd  abort                                                                
00014379  atoi                                                                 
ffffffff  binit                                                                
00013f0d  close                                                                
00014689  copy_in                                                              
000164ef  copysign                                                             
000164ef  copysignl                                                            
00005ca1  cos                                                                  
00005ca1  cosl                                                                 
080272d8  edmaDbg                                                              
080283a0  errno                                                                
000143d5  exit                                                                 
00011967  fclose                                                               
0000fb4d  fflush                                                               
00012ba5  finddevice                                                           
0000f0f9  floor                                                                
0000f0f9  floorl                                                               
0000ac49  fopen                                                                
00011999  fputc                                                                
0000cc9d  fputs                                                                
0000e99d  fread                                                                
000164bb  free                                                                 
0000ac1f  freopen                                                              
00012c19  frexp                                                                
00012c19  frexpl                                                               
00013625  fseek                                                                
080281e0  gAntDef_AWR1843AOP                                                   
0802817c  gAntennaSpacing                                                      
08025a42  gCurrTestId                                                          
08028134  gDPC_ObjectDetectionCfg                                              
08028394  gDPM                                                                 
08028328  gDPMHwAttrib                                                         
00018cfc  gDPMMessageFxnTable                                                  
08028278  gDPMRemoteTable                                                      
08025a5c  gDataPathObj                                                         
080272d4  gEDMA_4K_errata_check                                                
08028308  gESMHwCfgAttrs                                                       
00018c38  gEdmaHwAttrs                                                         
080259c0  gEsmMCB                                                              
08026764  gFrameConfig                                                         
08025e8c  gGenFrameDataObj                                                     
08028390  gHWADriverPtr                                                        
0802807c  gHWAHwCfg                                                            
080282b0  gHwaEDMAChanMapping                                                  
0802839c  gMCPILogMessageSize                                                  
08027ef4  gMailboxMCB                                                          
08028218  gMailboxMssBssHwCfg                                                  
08028230  gMailboxMssDssHwCfg                                                  
08025a4c  gMaxL3RamUsage                                                       
08025a44  gMaxL3RamUsageTestId                                                 
08025a50  gMaxTCMUsage                                                         
08025a46  gMaxTCMUsageTestId                                                   
08025a40  gNumSubFrames                                                        
08025a38  gObjDetObj                                                           
51000000  gObjectDetection_Test_L3Heap                                         
08000000  gObjectDetection_Test_TCMramHeap                                     
08010000  gObjectDetection_Test_chirpData                                      
08025a41  gReadTestConfigFromBinFile                                           
08028180  gSOCHwAttrib                                                         
00008835  genChirpData                                                         
00012bd3  getdevice                                                            
0000b21d  initFrameData                                                        
0000eb79  ldexp                                                                
0000eb79  ldexpl                                                               
00008371  log                                                                  
00008371  logl                                                                 
00015bed  lseek                                                                
000140bd  ltoa                                                                 
00010e45  main                                                                 
080283ac  main_func_sp                                                         
000158a9  malloc                                                               
000168d5  mathUtils_ceilLog2                                                   
000137b5  mathUtils_floorLog2                                                  
0000d9bd  mathUtils_genWindow                                                  
0001696f  mathUtils_pow2roundup                                                
000163a1  memccpy                                                              
000160e9  memchr                                                               
00015d75  memcmp                                                               
000114b1  memcpy                                                               
000129d5  memset                                                               
00010471  open                                                                 
08025a30  parmbuf                                                              
00001bad  pow                                                                  
00001bad  powl                                                                 
00012e59  printf                                                               
00011999  putc                                                                 
00011a1f  putchar                                                              
0000cdad  puts                                                                 
00015c15  read                                                                 
08028398  regionId                                                             
00015989  remove                                                               
0000eb79  scalbn                                                               
0000eb79  scalbnl                                                              
0000f1d9  setvbuf                                                              
00006095  sin                                                                  
00006095  sinl                                                                 
00011c89  snprintf                                                             
08025a48  socHandle                                                            
00013689  sprintf                                                              
0001595d  sqrt                                                                 
0001595d  sqrtl                                                                
08025a54  stdEvmCliTxAntOrder                                                  
00016269  strcat                                                               
000167eb  strchr                                                               
00016695  strcmp                                                               
000168fd  strcpy                                                               
00016801  strlen                                                               
00015389  strncpy                                                              
08028158  ti_sysbios_BIOS_Module__state__V                                     
00016523  ti_sysbios_BIOS_RtsGateProxy_Handle__label__S                        
0001154d  ti_sysbios_BIOS_RtsGateProxy_enter__E                                
000115ed  ti_sysbios_BIOS_RtsGateProxy_leave__E                                
00016bc1  ti_sysbios_BIOS_RtsGateProxy_query__E                                
00015635  ti_sysbios_BIOS_atExitFunc__I                                        
00015f55  ti_sysbios_BIOS_errorRaiseHook__I                                    
00016817  ti_sysbios_BIOS_exitFunc__I                                          
000169c1  ti_sysbios_BIOS_exit__E                                              
00016c11  ti_sysbios_BIOS_linkedWithIncorrectBootLibrary__E                    
0000a3af  ti_sysbios_BIOS_nullFunc__I                                          
00015f79  ti_sysbios_BIOS_registerRTSLock__I                                   
00015f9d  ti_sysbios_BIOS_removeRTSLock__I                                     
000163bd  ti_sysbios_BIOS_rtsLock__I                                           
000166ad  ti_sysbios_BIOS_rtsUnlock__I                                         
000169d1  ti_sysbios_BIOS_setThreadType__E                                     
00015665  ti_sysbios_BIOS_startFunc__I                                         
000169e1  ti_sysbios_BIOS_start__E                                             
0000d3d4  ti_sysbios_family_arm_IntrinsicsSupport_maxbitA__I                   
0000d3d4  ti_sysbios_family_arm_IntrinsicsSupport_maxbit__E                    
0001168d  ti_sysbios_family_arm_TaskSupport_Module__startupDone__S             
000127c8  ti_sysbios_family_arm_TaskSupport_buildTaskStack                     
00016af1  ti_sysbios_family_arm_TaskSupport_checkStack__E                      
00016b01  ti_sysbios_family_arm_TaskSupport_getStackAlignment__E               
00016368  ti_sysbios_family_arm_TaskSupport_glue                               
00018fb0  ti_sysbios_family_arm_TaskSupport_stackAlignment__C                  
000156a1  ti_sysbios_family_arm_TaskSupport_start__E                           
00016384  ti_sysbios_family_arm_TaskSupport_swap__E                            
00018fb4  ti_sysbios_family_arm_exc_Exception_E_dataAbort__C                   
00018fb8  ti_sysbios_family_arm_exc_Exception_E_prefetchAbort__C               
00018fbc  ti_sysbios_family_arm_exc_Exception_E_swi__C                         
00018fc0  ti_sysbios_family_arm_exc_Exception_E_undefinedInstruction__C        
080283cc  ti_sysbios_family_arm_exc_Exception_Module_State_0_excActive__A      
080283b0  ti_sysbios_family_arm_exc_Exception_Module_State_0_excContext__A     
080283b4  ti_sysbios_family_arm_exc_Exception_Module_State_0_excStackBuffers__A
08024000  ti_sysbios_family_arm_exc_Exception_Module_State_0_excStack_0__A     
080283b8  ti_sysbios_family_arm_exc_Exception_Module_State_0_excStack__A       
00018b5a  ti_sysbios_family_arm_exc_Exception_Module__id__C                    
0802828c  ti_sysbios_family_arm_exc_Exception_Module__state__V                 
00016b11  ti_sysbios_family_arm_exc_Exception_Module_startup__E                
000080f1  ti_sysbios_family_arm_exc_Exception_excDumpContext__I                
0000f898  ti_sysbios_family_arm_exc_Exception_excHandlerAsm__I                 
0000f900  ti_sysbios_family_arm_exc_Exception_excHandlerDataAsm__I             
0000bb51  ti_sysbios_family_arm_exc_Exception_excHandler__I                    
00018fc4  ti_sysbios_family_arm_exc_Exception_excHookFuncs__A                  
00018fc8  ti_sysbios_family_arm_exc_Exception_excHookFuncs__C                  
000136ec  ti_sysbios_family_arm_exc_Exception_initCore0__I                     
00018fcc  ti_sysbios_family_arm_v7a_Pmu_A_invalidCounterId__C                  
00018fd0  ti_sysbios_family_arm_v7a_Pmu_Module__diagsEnabled__C                
00018fd4  ti_sysbios_family_arm_v7a_Pmu_Module__diagsIncluded__C               
00018fd8  ti_sysbios_family_arm_v7a_Pmu_Module__diagsMask__C                   
00018f5e  ti_sysbios_family_arm_v7a_Pmu_Module__id__C                          
08028314  ti_sysbios_family_arm_v7a_Pmu_Module__state__V                       
00016111  ti_sysbios_family_arm_v7a_Pmu_Module_startup__E                      
0000f2b4  ti_sysbios_family_arm_v7a_Pmu_configureCounterI__I                   
0000ffc1  ti_sysbios_family_arm_v7a_Pmu_configureCounter__E                    
000169f0  ti_sysbios_family_arm_v7a_Pmu_disableInterruptI__E                   
00016a00  ti_sysbios_family_arm_v7a_Pmu_enableInterruptI__E                    
0000ffb4  ti_sysbios_family_arm_v7a_Pmu_getCountI__E                           
00012101  ti_sysbios_family_arm_v7a_Pmu_getCount__E                            
000146d4  ti_sysbios_family_arm_v7a_Pmu_getEnabled__E                          
00016a10  ti_sysbios_family_arm_v7a_Pmu_getNumCounters__E                      
000166c4  ti_sysbios_family_arm_v7a_Pmu_initCounters__I                        
00016a20  ti_sysbios_family_arm_v7a_Pmu_startCounterI__E                       
00011e41  ti_sysbios_family_arm_v7a_Pmu_startCounter__E                        
00016a30  ti_sysbios_family_arm_v7a_Pmu_stopCounterI__E                        
00018fdc  ti_sysbios_family_arm_v7r_tms570_Core_E_mismatchedIds__C             
00019190  ti_sysbios_family_arm_v7r_tms570_Core_Module__id__C                  
00014c81  ti_sysbios_family_arm_v7r_tms570_Core_Module_startup__E              
00013825  ti_sysbios_family_arm_v7r_tms570_Core_getId__E                       
00018fe0  ti_sysbios_family_arm_v7r_tms570_Core_id__C                          
00018fe4  ti_sysbios_family_arm_v7r_vim_Hwi_A_badChannelId__C                  
00018fe8  ti_sysbios_family_arm_v7r_vim_Hwi_E_alreadyDefined__C                
00018fec  ti_sysbios_family_arm_v7r_vim_Hwi_E_badIntNum__C                     
00018ff0  ti_sysbios_family_arm_v7r_vim_Hwi_E_phantomInterrupt__C              
00018ff4  ti_sysbios_family_arm_v7r_vim_Hwi_E_undefined__C                     
00018ff8  ti_sysbios_family_arm_v7r_vim_Hwi_E_unsupportedMaskingOption__C      
00012191  ti_sysbios_family_arm_v7r_vim_Hwi_Instance_finalize__E               
0000ef31  ti_sysbios_family_arm_v7r_vim_Hwi_Instance_init__E                   
080279e0  ti_sysbios_family_arm_v7r_vim_Hwi_Module_State_0_dispatchTable__A    
08025400  ti_sysbios_family_arm_v7r_vim_Hwi_Module_State_0_fiqStack__A         
00018ffc  ti_sysbios_family_arm_v7r_vim_Hwi_Module__diagsEnabled__C            
00019000  ti_sysbios_family_arm_v7r_vim_Hwi_Module__diagsIncluded__C           
00019004  ti_sysbios_family_arm_v7r_vim_Hwi_Module__diagsMask__C               
00019192  ti_sysbios_family_arm_v7r_vim_Hwi_Module__id__C                      
08028330  ti_sysbios_family_arm_v7r_vim_Hwi_Module__root__V                    
000166dd  ti_sysbios_family_arm_v7r_vim_Hwi_Module__startupDone__F             
000166dd  ti_sysbios_family_arm_v7r_vim_Hwi_Module__startupDone__S             
08028048  ti_sysbios_family_arm_v7r_vim_Hwi_Module__state__V                   
00010091  ti_sysbios_family_arm_v7r_vim_Hwi_Module_startup__E                  
00019008  ti_sysbios_family_arm_v7r_vim_Hwi_NUM_INTERRUPTS__C                  
00018e20  ti_sysbios_family_arm_v7r_vim_Hwi_Object__DESC__C                    
00018ca0  ti_sysbios_family_arm_v7r_vim_Hwi_Object__PARAMS__C                  
00016131  ti_sysbios_family_arm_v7r_vim_Hwi_Object__delete__S                  
080280dc  ti_sysbios_family_arm_v7r_vim_Hwi_Object__table__V                   
000166f5  ti_sysbios_family_arm_v7r_vim_Hwi_Params__init__S                    
00018ada  ti_sysbios_family_arm_v7r_vim_Hwi_channelMap__A                      
0001900c  ti_sysbios_family_arm_v7r_vim_Hwi_channelMap__C                      
00016711  ti_sysbios_family_arm_v7r_vim_Hwi_clearInterrupt__E                  
00014111  ti_sysbios_family_arm_v7r_vim_Hwi_create                             
0001172d  ti_sysbios_family_arm_v7r_vim_Hwi_delete                             
00016151  ti_sysbios_family_arm_v7r_vim_Hwi_disableInterrupt__E                
0000cb61  ti_sysbios_family_arm_v7r_vim_Hwi_dispatchIRQC__I                    
00011d1c  ti_sysbios_family_arm_v7r_vim_Hwi_dispatchIRQ__I                     
00016171  ti_sysbios_family_arm_v7r_vim_Hwi_enableInterrupt__E                 
000146e1  ti_sysbios_family_arm_v7r_vim_Hwi_getStackInfo__E                    
00011551  ti_sysbios_family_arm_v7r_vim_Hwi_initIntController__I               
00015120  ti_sysbios_family_arm_v7r_vim_Hwi_init__I                            
00018f70  ti_sysbios_family_arm_v7r_vim_Hwi_intReqEnaSet__A                    
00019010  ti_sysbios_family_arm_v7r_vim_Hwi_intReqEnaSet__C                    
000115f1  ti_sysbios_family_arm_v7r_vim_Hwi_mapChannel__I                      
00019014  ti_sysbios_family_arm_v7r_vim_Hwi_phantomFunc__C                     
00013751  ti_sysbios_family_arm_v7r_vim_Hwi_phantomIntHandler__I               
0000bfb1  ti_sysbios_family_arm_v7r_vim_Hwi_reconfig__E                        
00014eb1  ti_sysbios_family_arm_v7r_vim_Hwi_setType__E                         
00016b61  ti_sysbios_family_arm_v7r_vim_Hwi_startup__E                         
00019018  ti_sysbios_family_arm_v7r_vim_Hwi_swiDisable__C                      
0001901c  ti_sysbios_family_arm_v7r_vim_Hwi_swiRestoreHwi__C                   
00016b21  ti_sysbios_family_arm_v7r_vim_Hwi_switchFromBootStack__E             
00019020  ti_sysbios_family_arm_v7r_vim_Hwi_taskDisable__C                     
00019024  ti_sysbios_family_arm_v7r_vim_Hwi_taskRestoreHwi__C                  
00000000  ti_sysbios_family_arm_v7r_vim_Hwi_vectors                            
fffffdec  ti_sysbios_family_arm_v7r_vim_Hwi_vim                                
00018f80  ti_sysbios_family_arm_v7r_vim_Hwi_wakeEnaSet__A                      
00019028  ti_sysbios_family_arm_v7r_vim_Hwi_wakeEnaSet__C                      
00011a7c  ti_sysbios_family_xxx_Hwi_switchAndRunDispatchC                      
00011a30  ti_sysbios_family_xxx_Hwi_switchAndRunFunc                           
00016509  ti_sysbios_gates_GateHwi_Handle__label__S                            
00016c21  ti_sysbios_gates_GateHwi_Instance_init__E                            
00018d70  ti_sysbios_gates_GateHwi_Module__FXNS__C                             
08028338  ti_sysbios_gates_GateHwi_Module__root__V                             
00018e40  ti_sysbios_gates_GateHwi_Object__DESC__C                             
00018f00  ti_sysbios_gates_GateHwi_Object__PARAMS__C                           
000156d1  ti_sysbios_gates_GateHwi_Object__create__S                           
00016191  ti_sysbios_gates_GateHwi_Object__delete__S                           
080283bc  ti_sysbios_gates_GateHwi_Object__table__V                            
00016b51  ti_sysbios_gates_GateHwi_enter__E                                    
00016b71  ti_sysbios_gates_GateHwi_leave__E                                    
00016bb1  ti_sysbios_gates_GateHwi_query__E                                    
0001902c  ti_sysbios_gates_GateMutex_A_badContext__C                           
00016523  ti_sysbios_gates_GateMutex_Handle__label__S                          
00019030  ti_sysbios_gates_GateMutex_Instance_State_sem__O                     
00016a41  ti_sysbios_gates_GateMutex_Instance_finalize__E                      
000163e1  ti_sysbios_gates_GateMutex_Instance_init__E                          
00018d94  ti_sysbios_gates_GateMutex_Module__FXNS__C                           
00019034  ti_sysbios_gates_GateMutex_Module__diagsEnabled__C                   
00019038  ti_sysbios_gates_GateMutex_Module__diagsIncluded__C                  
0001903c  ti_sysbios_gates_GateMutex_Module__diagsMask__C                      
00019194  ti_sysbios_gates_GateMutex_Module__id__C                             
08028340  ti_sysbios_gates_GateMutex_Module__root__V                           
00018e60  ti_sysbios_gates_GateMutex_Object__DESC__C                           
00018f18  ti_sysbios_gates_GateMutex_Object__PARAMS__C                         
00015701  ti_sysbios_gates_GateMutex_Object__create__S                         
00015fc1  ti_sysbios_gates_GateMutex_Object__delete__S                         
08027fcc  ti_sysbios_gates_GateMutex_Object__table__V                          
000108c1  ti_sysbios_gates_GateMutex_enter__E                                  
00016401  ti_sysbios_gates_GateMutex_leave__E                                  
00016bc1  ti_sysbios_gates_GateMutex_query__E                                  
00013825  ti_sysbios_hal_Core_CoreProxy_getId__E                               
00019040  ti_sysbios_hal_Hwi_E_stackOverflow__C                                
000166dd  ti_sysbios_hal_Hwi_HwiProxy_Module__startupDone__S                   
000166f5  ti_sysbios_hal_Hwi_HwiProxy_Params__init__S                          
00016711  ti_sysbios_hal_Hwi_HwiProxy_clearInterrupt__E                        
00016151  ti_sysbios_hal_Hwi_HwiProxy_disableInterrupt__E                      
00016171  ti_sysbios_hal_Hwi_HwiProxy_enableInterrupt__E                       
000146e1  ti_sysbios_hal_Hwi_HwiProxy_getStackInfo__E                          
00016b61  ti_sysbios_hal_Hwi_HwiProxy_startup__E                               
00016b21  ti_sysbios_hal_Hwi_HwiProxy_switchFromBootStack__E                   
00019196  ti_sysbios_hal_Hwi_Module__id__C                                     
00016981  ti_sysbios_hal_Hwi_Module_startup__E                                 
08028348  ti_sysbios_hal_Hwi_Object__table__V                                  
00015161  ti_sysbios_hal_Hwi_checkStack                                        
00016711  ti_sysbios_hal_Hwi_clearInterrupt__E                                 
00016151  ti_sysbios_hal_Hwi_disableInterrupt__E                               
00016171  ti_sysbios_hal_Hwi_enableInterrupt__E                                
000146e1  ti_sysbios_hal_Hwi_getStackInfo__E                                   
000155a1  ti_sysbios_hal_Hwi_initStack                                         
00016b61  ti_sysbios_hal_Hwi_startup__E                                        
00016b21  ti_sysbios_hal_Hwi_switchFromBootStack__E                            
00019044  ti_sysbios_heaps_HeapBuf_Instance_State_freeList__O                  
080283c0  ti_sysbios_heaps_HeapBuf_Module__state__V                            
0000ec71  ti_sysbios_heaps_HeapBuf_Module_startup__E                           
00019048  ti_sysbios_heaps_HeapBuf_Object__count__C                            
00016a51  ti_sysbios_heaps_HeapBuf_Object__get__S                              
0001904c  ti_sysbios_heaps_HeapBuf_numConstructedHeaps__C                      
00019050  ti_sysbios_heaps_HeapMem_A_align__C                                  
00019054  ti_sysbios_heaps_HeapMem_A_heapSize__C                               
00019058  ti_sysbios_heaps_HeapMem_A_invalidFree__C                            
0001905c  ti_sysbios_heaps_HeapMem_A_zeroBlock__C                              
00019060  ti_sysbios_heaps_HeapMem_E_memory__C                                 
0001653d  ti_sysbios_heaps_HeapMem_Handle__label__S                            
08014000  ti_sysbios_heaps_HeapMem_Instance_State_0_buf__A                     
0000c8e1  ti_sysbios_heaps_HeapMem_Instance_init__E                            
00016523  ti_sysbios_heaps_HeapMem_Module_GateProxy_Handle__label__S           
0001218d  ti_sysbios_heaps_HeapMem_Module_GateProxy_enter__E                   
0001221d  ti_sysbios_heaps_HeapMem_Module_GateProxy_leave__E                   
00016bc1  ti_sysbios_heaps_HeapMem_Module_GateProxy_query__E                   
00018d24  ti_sysbios_heaps_HeapMem_Module__FXNS__C                             
00019064  ti_sysbios_heaps_HeapMem_Module__diagsEnabled__C                     
00019068  ti_sysbios_heaps_HeapMem_Module__diagsIncluded__C                    
0001906c  ti_sysbios_heaps_HeapMem_Module__diagsMask__C                        
00019070  ti_sysbios_heaps_HeapMem_Module__gateObj__C                          
00019198  ti_sysbios_heaps_HeapMem_Module__id__C                               
08028350  ti_sysbios_heaps_HeapMem_Module__root__V                             
00018e80  ti_sysbios_heaps_HeapMem_Object__DESC__C                             
00018db8  ti_sysbios_heaps_HeapMem_Object__PARAMS__C                           
00019074  ti_sysbios_heaps_HeapMem_Object__count__C                            
00015731  ti_sysbios_heaps_HeapMem_Object__create__S                           
000161b1  ti_sysbios_heaps_HeapMem_Object__delete__S                           
00016911  ti_sysbios_heaps_HeapMem_Object__get__S                              
08028248  ti_sysbios_heaps_HeapMem_Object__table__V                            
00009351  ti_sysbios_heaps_HeapMem_allocUnprotected__E                         
00013961  ti_sysbios_heaps_HeapMem_alloc__E                                    
00007bb1  ti_sysbios_heaps_HeapMem_freeUnprotected__E                          
00015761  ti_sysbios_heaps_HeapMem_free__E                                     
00014171  ti_sysbios_heaps_HeapMem_getStats__E                                 
000151a1  ti_sysbios_heaps_HeapMem_init__I                                     
00016b81  ti_sysbios_heaps_HeapMem_isBlocking__E                               
00019078  ti_sysbios_heaps_HeapMem_reqAlign__C                                 
0001907c  ti_sysbios_knl_Clock_Module_State_clockQ__O                          
08028108  ti_sysbios_knl_Clock_Module__state__V                                
00015ff1  ti_sysbios_knl_Clock_Module_startup__E                               
00016779  ti_sysbios_knl_Clock_TimerProxy_Module__startupDone__S               
000128cd  ti_sysbios_knl_Clock_TimerProxy_getMaxTicks__E                       
000103b1  ti_sysbios_knl_Clock_TimerProxy_startup__E                           
000159b5  ti_sysbios_knl_Clock_doTick__I                                       
00016c31  ti_sysbios_knl_Clock_logTick__E                                      
00012851  ti_sysbios_knl_Clock_workFunc__E                                     
00019080  ti_sysbios_knl_Idle_funcList__A                                      
00018f90  ti_sysbios_knl_Idle_funcList__C                                      
00016831  ti_sysbios_knl_Idle_loop__E                                          
00015c71  ti_sysbios_knl_Idle_run__E                                           
0000d3d4  ti_sysbios_knl_Intrinsics_SupportProxy_maxbit__E                     
0000d3d4  ti_sysbios_knl_Intrinsics_maxbit__E                                  
00016b91  ti_sysbios_knl_Queue_Instance_init__E                                
08028358  ti_sysbios_knl_Queue_Module__root__V                                 
00018ea0  ti_sysbios_knl_Queue_Object__DESC__C                                 
00018f30  ti_sysbios_knl_Queue_Object__PARAMS__C                               
00010085  ti_sysbios_knl_Queue_Object__get__S                                  
000159e1  ti_sysbios_knl_Queue_construct                                       
0001641d  ti_sysbios_knl_Queue_destruct                                        
00016ae1  ti_sysbios_knl_Queue_empty__E                                        
00019084  ti_sysbios_knl_Semaphore_A_badContext__C                             
00019088  ti_sysbios_knl_Semaphore_A_noEvents__C                               
0001908c  ti_sysbios_knl_Semaphore_A_overflow__C                               
00019090  ti_sysbios_knl_Semaphore_A_pendTaskDisabled__C                       
00019094  ti_sysbios_knl_Semaphore_Instance_State_pendQ__O                     
00016a61  ti_sysbios_knl_Semaphore_Instance_finalize__E                        
00011691  ti_sysbios_knl_Semaphore_Instance_init__E                            
00019098  ti_sysbios_knl_Semaphore_Module__diagsEnabled__C                     
0001909c  ti_sysbios_knl_Semaphore_Module__diagsIncluded__C                    
000190a0  ti_sysbios_knl_Semaphore_Module__diagsMask__C                        
0001919a  ti_sysbios_knl_Semaphore_Module__id__C                               
08028360  ti_sysbios_knl_Semaphore_Module__root__V                             
00018ec0  ti_sysbios_knl_Semaphore_Object__DESC__C                             
00018ddc  ti_sysbios_knl_Semaphore_Object__PARAMS__C                           
00016015  ti_sysbios_knl_Semaphore_Object__delete__S                           
00016729  ti_sysbios_knl_Semaphore_Params__init__S                             
00015791  ti_sysbios_knl_Semaphore_construct                                   
00015491  ti_sysbios_knl_Semaphore_create                                      
0001294d  ti_sysbios_knl_Semaphore_delete                                      
000161d1  ti_sysbios_knl_Semaphore_destruct                                    
00015a11  ti_sysbios_knl_Semaphore_pendTimeout__I                              
00007081  ti_sysbios_knl_Semaphore_pend__E                                     
0000f2c1  ti_sysbios_knl_Semaphore_post__E                                     
08027cd0  ti_sysbios_knl_Swi_Module_State_0_readyQ__A                          
080281fc  ti_sysbios_knl_Swi_Module__state__V                                  
00015a41  ti_sysbios_knl_Swi_Module_startup__E                                 
000190a4  ti_sysbios_knl_Swi_Object__count__C                                  
00016925  ti_sysbios_knl_Swi_Object__get__S                                    
080280ac  ti_sysbios_knl_Swi_Object__table__V                                  
00016a71  ti_sysbios_knl_Swi_disable__E                                        
00014ef1  ti_sysbios_knl_Swi_post__E                                           
00010981  ti_sysbios_knl_Swi_restoreHwi__E                                     
00011731  ti_sysbios_knl_Swi_runLoop__I                                        
00013bf1  ti_sysbios_knl_Swi_schedule__I                                       
000151e1  ti_sysbios_knl_Swi_startup__E                                        
000190a8  ti_sysbios_knl_Task_A_badPriority__C                                 
000190ac  ti_sysbios_knl_Task_A_badTaskState__C                                
000190b0  ti_sysbios_knl_Task_A_badThreadType__C                               
000190b4  ti_sysbios_knl_Task_A_badTimeout__C                                  
000190b8  ti_sysbios_knl_Task_A_noPendElem__C                                  
000190bc  ti_sysbios_knl_Task_A_sleepTaskDisabled__C                           
000190c0  ti_sysbios_knl_Task_E_spOutOfBounds__C                               
000190c4  ti_sysbios_knl_Task_E_stackOverflow__C                               
08025000  ti_sysbios_knl_Task_Instance_State_0_stack__A                        
00009121  ti_sysbios_knl_Task_Instance_finalize__E                             
0000acf1  ti_sysbios_knl_Task_Instance_init__E                                 
080283c4  ti_sysbios_knl_Task_Module_State_0_idleTask__A                       
08027d50  ti_sysbios_knl_Task_Module_State_0_readyQ__A                         
000190c8  ti_sysbios_knl_Task_Module_State_inactiveQ__O                        
000190cc  ti_sysbios_knl_Task_Module__diagsEnabled__C                          
000190d0  ti_sysbios_knl_Task_Module__diagsIncluded__C                         
000190d4  ti_sysbios_knl_Task_Module__diagsMask__C                             
0001919c  ti_sysbios_knl_Task_Module__id__C                                    
08028368  ti_sysbios_knl_Task_Module__root__V                                  
08027f44  ti_sysbios_knl_Task_Module__state__V                                 
0000a951  ti_sysbios_knl_Task_Module_startup__E                                
00018ee0  ti_sysbios_knl_Task_Object__DESC__C                                  
00018bb4  ti_sysbios_knl_Task_Object__PARAMS__C                                
000190d8  ti_sysbios_knl_Task_Object__count__C                                 
00016a81  ti_sysbios_knl_Task_Object__get__S                                   
08027e48  ti_sysbios_knl_Task_Object__table__V                                 
00016741  ti_sysbios_knl_Task_Params__init__S                                  
0001168d  ti_sysbios_knl_Task_SupportProxy_Module__startupDone__S              
00016af1  ti_sysbios_knl_Task_SupportProxy_checkStack__E                       
00016b01  ti_sysbios_knl_Task_SupportProxy_getStackAlignment__E                
000156a1  ti_sysbios_knl_Task_SupportProxy_start__E                            
00016384  ti_sysbios_knl_Task_SupportProxy_swap__E                             
000190dc  ti_sysbios_knl_Task_allBlockedFunc__C                                
00014cd1  ti_sysbios_knl_Task_allBlockedFunction__I                            
0000fbd1  ti_sysbios_knl_Task_checkStacks__E                                   
0001472d  ti_sysbios_knl_Task_create                                           
000190e0  ti_sysbios_knl_Task_defaultStackHeap__C                              
000190e4  ti_sysbios_knl_Task_defaultStackSize__C                              
00016a91  ti_sysbios_knl_Task_disable__E                                       
00016761  ti_sysbios_knl_Task_enter__I                                         
00010a31  ti_sysbios_knl_Task_exit__E                                          
000190e8  ti_sysbios_knl_Task_numConstructedTasks__C                           
00010161  ti_sysbios_knl_Task_postInit__I                                      
000154d1  ti_sysbios_knl_Task_processVitalTaskFlag__I                          
00016041  ti_sysbios_knl_Task_restoreHwi__E                                    
00015ca1  ti_sysbios_knl_Task_restore__E                                       
000137c1  ti_sysbios_knl_Task_schedule__I                                      
00015351  ti_sysbios_knl_Task_sleepTimeout__I                                  
0000a3b1  ti_sysbios_knl_Task_sleep__E                                         
000141d1  ti_sysbios_knl_Task_startCore__E                                     
00016bd1  ti_sysbios_knl_Task_startup__E                                       
00015a71  ti_sysbios_knl_Task_unblockI__E                                      
000190ec  ti_sysbios_timers_rti_Timer_E_cannotSupport__C                       
08028260  ti_sysbios_timers_rti_Timer_Module_State_0_device__A                 
08028370  ti_sysbios_timers_rti_Timer_Module_State_0_handles__A                
080282d0  ti_sysbios_timers_rti_Timer_Module_State_0_intFreqs__A               
000190f0  ti_sysbios_timers_rti_Timer_Module__diagsEnabled__C                  
000190f4  ti_sysbios_timers_rti_Timer_Module__diagsIncluded__C                 
000190f8  ti_sysbios_timers_rti_Timer_Module__diagsMask__C                     
0001919e  ti_sysbios_timers_rti_Timer_Module__id__C                            
00016779  ti_sysbios_timers_rti_Timer_Module__startupDone__F                   
00016779  ti_sysbios_timers_rti_Timer_Module__startupDone__S                   
080282e0  ti_sysbios_timers_rti_Timer_Module__state__V                         
0000c791  ti_sysbios_timers_rti_Timer_Module_startup__E                        
0802800c  ti_sysbios_timers_rti_Timer_Object__table__V                         
000191a0  ti_sysbios_timers_rti_Timer_continueOnSuspend__C                     
0000e6b1  ti_sysbios_timers_rti_Timer_getFreq__E                               
00016be1  ti_sysbios_timers_rti_Timer_getMaxTicks__E                           
00012551  ti_sysbios_timers_rti_Timer_initDevice__I                            
000190fc  ti_sysbios_timers_rti_Timer_numTimerDevices__C                       
00015aa1  ti_sysbios_timers_rti_Timer_periodicStub__E                          
000128d1  ti_sysbios_timers_rti_Timer_setPeriodMicroSecs__E                    
00015221  ti_sysbios_timers_rti_Timer_setPeriod__E                             
00019100  ti_sysbios_timers_rti_Timer_startupNeeded__C                         
000103b1  ti_sysbios_timers_rti_Timer_startup__E                               
00014f31  ti_sysbios_timers_rti_Timer_stop__E                                  
00015989  unlink                                                               
00015c3d  write                                                                
00019104  xdc_runtime_Assert_E_assertFailed__C                                 
000139c1  xdc_runtime_Assert_raise__I                                          
00019108  xdc_runtime_Core_A_initializedParams__C                              
0001910c  xdc_runtime_Core_Module__diagsEnabled__C                             
00019110  xdc_runtime_Core_Module__diagsIncluded__C                            
00019114  xdc_runtime_Core_Module__diagsMask__C                                
000191a2  xdc_runtime_Core_Module__id__C                                       
00014231  xdc_runtime_Core_assignLabel__I                                      
00014811  xdc_runtime_Core_assignParams__I                                     
0000e291  xdc_runtime_Core_constructObject__I                                  
0000ca21  xdc_runtime_Core_createObject__I                                     
00012951  xdc_runtime_Core_deleteObject__I                                     
00019118  xdc_runtime_Error_E_memory__C                                        
080281a0  xdc_runtime_Error_IgnoreBlock                                        
080283ce  xdc_runtime_Error_Module__state__V                                   
00016791  xdc_runtime_Error_init__E                                            
000191a4  xdc_runtime_Error_maxDepth__C                                        
0000d3e1  xdc_runtime_Error_policyDefault__E                                   
0001911c  xdc_runtime_Error_policyFxn__C                                       
00019120  xdc_runtime_Error_policy__C                                          
00012ec1  xdc_runtime_Error_print__E                                           
00019124  xdc_runtime_Error_raiseHook__C                                       
00019128  xdc_runtime_IGateProvider_Interface__BASE__C                         
0001912c  xdc_runtime_IHeap_Interface__BASE__C                                 
00019130  xdc_runtime_IModule_Interface__BASE__C                               
00016509  xdc_runtime_Main_Module_GateProxy_Handle__label__S                   
00016bb1  xdc_runtime_Main_Module_GateProxy_query__E                           
00019134  xdc_runtime_Main_Module__diagsEnabled__C                             
00019138  xdc_runtime_Main_Module__diagsIncluded__C                            
0001913c  xdc_runtime_Main_Module__diagsMask__C                                
000191a6  xdc_runtime_Main_Module__id__C                                       
000191a8  xdc_runtime_Main_Module__loggerDefined__C                            
00019140  xdc_runtime_Main_Module__loggerFxn1__C                               
00019144  xdc_runtime_Main_Module__loggerFxn2__C                               
00019148  xdc_runtime_Main_Module__loggerFxn4__C                               
0001914c  xdc_runtime_Main_Module__loggerObj__C                                
0001653d  xdc_runtime_Memory_HeapProxy_Handle__label__S                        
00013955  xdc_runtime_Memory_HeapProxy_alloc__E                                
00014165  xdc_runtime_Memory_HeapProxy_free__E                                 
000141c5  xdc_runtime_Memory_HeapProxy_getStats__E                             
000191aa  xdc_runtime_Memory_Module__id__C                                     
080283c8  xdc_runtime_Memory_Module__state__V                                  
00012221  xdc_runtime_Memory_alloc__E                                          
00019150  xdc_runtime_Memory_defaultHeapInstance__C                            
00016aa1  xdc_runtime_Memory_free__E                                           
00016ab1  xdc_runtime_Memory_getStats__E                                       
08028378  xdc_runtime_Registry_Module__state__V                                
08028380  xdc_runtime_Startup_Module__state__V                                 
00000001  xdc_runtime_Startup__EXECFXN__C                                      
00000001  xdc_runtime_Startup__RESETFXN__C                                     
00019154  xdc_runtime_Startup_execImpl__C                                      
00013831  xdc_runtime_Startup_exec__E                                          
00016993  xdc_runtime_Startup_exec__I                                          
00018f98  xdc_runtime_Startup_firstFxns__A                                     
00018fa0  xdc_runtime_Startup_firstFxns__C                                     
00018fa8  xdc_runtime_Startup_lastFxns__C                                      
00019158  xdc_runtime_Startup_maxPasses__C                                     
0000ee47  xdc_runtime_Startup_reset__I                                         
00016b31  xdc_runtime_Startup_rtsDone__E                                       
00018f48  xdc_runtime_Startup_sfxnRts__A                                       
0001915c  xdc_runtime_Startup_sfxnRts__C                                       
00018cd0  xdc_runtime_Startup_sfxnTab__A                                       
00019160  xdc_runtime_Startup_sfxnTab__C                                       
0000d171  xdc_runtime_Startup_startMods__I                                     
00015cd1  xdc_runtime_SysStd_abort__E                                          
00016b41  xdc_runtime_SysStd_exit__E                                           
00016bf1  xdc_runtime_SysStd_putch__E                                          
00016c01  xdc_runtime_SysStd_ready__E                                          
00016509  xdc_runtime_System_Module_GateProxy_Handle__label__S                 
0001422d  xdc_runtime_System_Module_GateProxy_enter__E                         
000146dd  xdc_runtime_System_Module_GateProxy_leave__E                         
00016bb1  xdc_runtime_System_Module_GateProxy_query__E                         
080281c0  xdc_runtime_System_Module_State_0_atexitHandlers__A                  
00019164  xdc_runtime_System_Module__gateObj__C                                
08028388  xdc_runtime_System_Module__state__V                                  
00016ba1  xdc_runtime_System_Module_startup__E                                 
00015cd1  xdc_runtime_System_SupportProxy_abort__E                             
00016b41  xdc_runtime_System_SupportProxy_exit__E                              
00016bf1  xdc_runtime_System_SupportProxy_putch__E                             
00016c01  xdc_runtime_System_SupportProxy_ready__E                             
00019168  xdc_runtime_System_abortFxn__C                                       
000143cd  xdc_runtime_System_abortStd__E                                       
00016557  xdc_runtime_System_aprintf__E                                        
00015d01  xdc_runtime_System_aprintf_va__F                                     
00014d21  xdc_runtime_System_atexit__E                                         
00004b41  xdc_runtime_System_doPrint__I                                        
0001916c  xdc_runtime_System_exitFxn__C                                        
000143d5  xdc_runtime_System_exitStd__E                                        
00014471  xdc_runtime_System_exit__E                                           
00019170  xdc_runtime_System_extendFxn__C                                      
00019174  xdc_runtime_System_maxAtexitHandlers__C                              
0000e7b5  xdc_runtime_System_printfExtend__I                                   
00016571  xdc_runtime_System_printf__E                                         
00015da1  xdc_runtime_System_printf_va__F                                      
000191ac  xdc_runtime_Text_charCnt__C                                          
00016c38  xdc_runtime_Text_charTab__A                                          
00019178  xdc_runtime_Text_charTab__C                                          
000191ae  xdc_runtime_Text_isLoaded__C                                         
0001917c  xdc_runtime_Text_nameEmpty__C                                        
00019180  xdc_runtime_Text_nameStatic__C                                       
00019184  xdc_runtime_Text_nameUnknown__C                                      
00018a02  xdc_runtime_Text_nodeTab__A                                          
00019188  xdc_runtime_Text_nodeTab__C                                          
000157c1  xdc_runtime_Text_printVisFxn__I                                      
00013a21  xdc_runtime_Text_putLab__E                                           
00010ae1  xdc_runtime_Text_putMod__E                                           
00011191  xdc_runtime_Text_putSite__E                                          
000191b0  xdc_runtime_Text_registryModsLastId__C                               
000191b2  xdc_runtime_Text_unnamedModsLastId__C                                
00012f31  xdc_runtime_Text_visitRope2__I                                       
0001918c  xdc_runtime_Text_visitRopeFxn__C                                     
00016ac1  xdc_runtime_Text_visitRope__I                                        
00014861  xdc_runtime_Text_xprintf__I                                          


GLOBAL SYMBOLS: SORTED BY Symbol Address 

address   name                                                                 
-------   ----                                                                 
00000000  __ASM__                                                              
00000000  __TI_static_base__                                                   
00000000  ti_sysbios_family_arm_v7r_vim_Hwi_vectors                            
00000001  xdc_runtime_Startup__EXECFXN__C                                      
00000001  xdc_runtime_Startup__RESETFXN__C                                     
000000ab  __ISA__                                                              
000000bd  __PLAT__                                                             
000000e1  __TARG__                                                             
00000108  __TRDR__                                                             
000008c5  __TI_printfi                                                         
00001000  __STACK_SIZE                                                         
0000117b  HWA_init                                                             
0000117d  ObjectDetection_Test_task                                            
00001bad  pow                                                                  
00001bad  powl                                                                 
00002231  DPU_DopplerProcHWA_config                                            
000028a1  HWA_configParamSet                                                   
00002ef9  __kernel_rem_pio2                                                    
000045dd  DPU_RangeProcHWA_process                                             
00004b41  xdc_runtime_System_doPrint__I                                        
00005023  __aeabi_idiv0                                                        
00005471  DPU_RangeProcHWA_config                                              
000058ad  DPU_AoAProcHWA_process                                               
00005ca1  cos                                                                  
00005ca1  cosl                                                                 
00006095  sin                                                                  
00006095  sinl                                                                 
00006489  SOC_deviceInit                                                       
00006a95  ObjectDetection_Test_setProfile                                      
00006d8c  __aeabi_ldivmod                                                      
00007081  ti_sysbios_knl_Semaphore_pend__E                                     
000078f0  __aeabi_uldivmod                                                     
00007bb1  ti_sysbios_heaps_HeapMem_freeUnprotected__E                          
000080f1  ti_sysbios_family_arm_exc_Exception_excDumpContext__I                
00008371  log                                                                  
00008371  logl                                                                 
000085d5  Mailbox_open                                                         
00008835  genChirpData                                                         
00008cbd  ObjectDetection_Test_configDPC                                       
00009121  ti_sysbios_knl_Task_Instance_finalize__E                             
0000934d  DPU_AoAProcHWA_getNumHwaParamSets                                    
00009351  ti_sysbios_heaps_HeapMem_allocUnprotected__E                         
00009579  ObjectDetection_Test_CompareToRef                                    
0000979d  HWA_configCommon                                                     
000099bd  EDMA_configChannel                                                   
00009fcf  __aeabi_ldiv0                                                        
0000a1c1  AoAProcHWA_peakGrouping                                              
0000a3af  ti_sysbios_BIOS_nullFunc__I                                          
0000a3b1  ti_sysbios_knl_Task_sleep__E                                         
0000a591  DPU_AoAProcHWA_config                                                
0000a76d  AoAProcHWA_XYZestimationAoA2D                                        
0000a945  EDMA3ChannelToParamMap                                               
0000a951  ti_sysbios_knl_Task_Module_startup__E                                
0000abf3  __TI_cleanup                                                         
0000ac1f  freopen                                                              
0000ac49  fopen                                                                
0000acf1  ti_sysbios_knl_Task_Instance_init__E                                 
0000aeb9  EDMA_open                                                            
0000b21d  initFrameData                                                        
0000b3ad  DPU_StaticClutterProc_process                                        
0000b539  DPU_CFARCAProcHWA_process                                            
0000b6c1  HWA_open                                                             
0000b849  DPM_init                                                             
0000b9c9  DPM_msgRecv                                                          
0000bb51  ti_sysbios_family_arm_exc_Exception_excHandler__I                    
0000bfa3  SemaphoreP_delete                                                    
0000bfb1  ti_sysbios_family_arm_v7r_vim_Hwi_reconfig__E                        
0000c269  ObjectDetection_Test_convertCoordinates                              
0000c3b5  DPU_StaticClutterProc_configEdma                                     
0000c4fd  EDMA_setSourceAddress                                                
0000c789  HwiP_disable                                                         
0000c791  ti_sysbios_timers_rti_Timer_Module_startup__E                        
0000c8d5  EDMAsetRegion                                                        
0000c8e1  ti_sysbios_heaps_HeapMem_Instance_init__E                            
0000ca21  xdc_runtime_Core_createObject__I                                     
0000cb61  ti_sysbios_family_arm_v7r_vim_Hwi_dispatchIRQC__I                    
0000cc9d  fputs                                                                
0000cdad  puts                                                                 
0000cdd5  CFARHWA_cfarRange_AND_cfarDoppler                                    
0000cf09  DPU_CFARCAProcHWA_config                                             
0000d03d  ObjectDetection_Test_DPCInit                                         
0000d171  xdc_runtime_Startup_startMods__I                                     
0000d2a5  AoAProcHWA_PrepareRangeAzimuthHeatmap                                
0000d3d4  ti_sysbios_family_arm_IntrinsicsSupport_maxbitA__I                   
0000d3d4  ti_sysbios_family_arm_IntrinsicsSupport_maxbit__E                    
0000d3d4  ti_sysbios_knl_Intrinsics_SupportProxy_maxbit__E                     
0000d3d4  ti_sysbios_knl_Intrinsics_maxbit__E                                  
0000d3e1  xdc_runtime_Error_policyDefault__E                                   
0000d511  HWAutil_configCFAR                                                   
0000d769  AoAProc_configLUT                                                    
0000d9bd  mathUtils_genWindow                                                  
0000dc09  EDMA_init                                                            
0000dd2d  MCPI_setFeatureTestResult                                            
0000de4d  EDMA_configErrorMonitoring                                           
0000e075  DPEDMA_configSyncAB                                                  
0000e28d  EDMA_getNumInstances                                                 
0000e291  xdc_runtime_Core_constructObject__I                                  
0000e39d  Mailbox_write                                                        
0000e4a5  DPEDMA_configSyncA_singleFrame                                       
0000e5a9  EDMA_configParamSet                                                  
0000e6ad  HwiP_disableInterrupt                                                
0000e6b1  ti_sysbios_timers_rti_Timer_getFreq__E                               
0000e7b5  xdc_runtime_System_printfExtend__I                                   
0000e8ad  ObjectDetection_Test_edmaOpen                                        
0000e99d  fread                                                                
0000ea8d  DPU_AoAProcHWA_init                                                  
0000eb79  ldexp                                                                
0000eb79  ldexpl                                                               
0000eb79  scalbn                                                               
0000eb79  scalbnl                                                              
0000ec65  __TI_zero_init                                                       
0000ec71  ti_sysbios_heaps_HeapBuf_Module_startup__E                           
0000ed5d  DPEDMAHWA_configTwoHotSignature                                      
0000ee47  xdc_runtime_Startup_reset__I                                         
0000ee49  DPU_DopplerProcHWA_process                                           
0000ef31  ti_sysbios_family_arm_v7r_vim_Hwi_Instance_init__E                   
0000f019  DPU_CFARCAProcHWA_control                                            
0000f0f9  floor                                                                
0000f0f9  floorl                                                               
0000f1d9  setvbuf                                                              
0000f2b4  ti_sysbios_family_arm_v7a_Pmu_configureCounterI__I                   
0000f2c1  ti_sysbios_knl_Semaphore_post__E                                     
0000f39d  ObjectDetection_Test_printAndCheckResults                            
0000f479  DPU_DopplerProcHWA_init                                              
0000f54d  Mailbox_read                                                         
0000f7c9  DPU_RangeProcHWA_control                                             
0000f898  ti_sysbios_family_arm_exc_Exception_excHandlerAsm__I                 
0000f900  ti_sysbios_family_arm_exc_Exception_excHandlerDataAsm__I             
0000fa35  HWA_enableParamSetInterrupt                                          
0000fb01  __TI_doflush                                                         
0000fb4d  fflush                                                               
0000fbcd  HwiP_enableInterrupt                                                 
0000fbd1  ti_sysbios_knl_Task_checkStacks__E                                   
0000fc9d  DPEDMAHWA_configOneHotSignature                                      
0000fd67  AoAProcHWA_SelectMaxPeaks                                            
0000fe2d  DPM_deinit                                                           
0000fef1  DPM_ioctl                                                            
0000ffb4  ti_sysbios_family_arm_v7a_Pmu_getCountI__E                           
0000ffc1  ti_sysbios_family_arm_v7a_Pmu_configureCounter__E                    
00010085  ti_sysbios_knl_Queue_Object__get__S                                  
00010091  ti_sysbios_family_arm_v7r_vim_Hwi_Module_startup__E                  
00010161  ti_sysbios_knl_Task_postInit__I                                      
000102e5  DPU_RangeProcHWA_init                                                
000103b1  ti_sysbios_knl_Clock_TimerProxy_startup__E                           
000103b1  ti_sysbios_timers_rti_Timer_startup__E                               
00010471  open                                                                 
0001052d  GaussianNoise                                                        
000105e5  __kernel_cos                                                         
0001069d  SOC_MPUEnable                                                        
000106bb  SOC_MPUDisable                                                       
000106d9  SOC_MPUEnableBackgroundRegion                                        
000106ef  SOC_MPUDisableBackgroundRegion                                       
00010705  SOC_MPUGetNumberOfRegions                                            
0001070f  SOC_MPUAreRegionsSeparate                                            
00010717  SOC_MPUSetRegion                                                     
0001071d  SOC_MPUGetRegion                                                     
00010723  SOC_MPUSetRegionBaseAddress                                          
00010729  SOC_MPUGetRegionBaseAddress                                          
0001072f  SOC_MPUSetRegionTypeAndPermission                                    
00010739  SOC_MPUGetRegionType                                                 
00010743  SOC_MPUGetRegionPermission                                           
0001074d  SOC_MPUSetRegionSizeRegister                                         
00010755  EDMA_startTransfer                                                   
000108bd  SOC_ungateClock                                                      
000108c1  ti_sysbios_gates_GateMutex_enter__E                                  
00010981  ti_sysbios_knl_Swi_restoreHwi__E                                     
00010a31  ti_sysbios_knl_Task_exit__E                                          
00010ae1  xdc_runtime_Text_putMod__E                                           
00010b91  __TI_wrt_ok                                                          
00010bf5  __TI_rd_ok                                                           
00010c41  AoAProcHWA_ConvertFov                                                
00010ced  AoAProcHWA_rxChanPhaseBiasCompensation                               
00010d99  ESM_processInterrupt                                                 
00010e45  main                                                                 
00010ef1  EDMA3Init                                                            
00010f99  SOC_deregisterSysIntListener                                         
00011041  ESM_init                                                             
000110e5  __kernel_sin                                                         
00011189  MemoryP_getStats                                                     
00011191  xdc_runtime_Text_putSite__E                                          
00011235  ObjectDetection_Test_trigFrameStart                                  
000112d5  SOC_registerSysIntListener                                           
00011375  __TI_auto_init                                                       
00011415  __TI_buff_read                                                       
000114b1  __aeabi_memcpy                                                       
000114b1  __aeabi_memcpy4                                                      
000114b1  __aeabi_memcpy8                                                      
000114b1  memcpy                                                               
0001154d  ti_sysbios_BIOS_RtsGateProxy_enter__E                                
00011551  ti_sysbios_family_arm_v7r_vim_Hwi_initIntController__I               
000115ed  ti_sysbios_BIOS_RtsGateProxy_leave__E                                
000115f1  ti_sysbios_family_arm_v7r_vim_Hwi_mapChannel__I                      
0001168d  ti_sysbios_family_arm_TaskSupport_Module__startupDone__S             
0001168d  ti_sysbios_knl_Task_SupportProxy_Module__startupDone__S              
00011691  ti_sysbios_knl_Semaphore_Instance_init__E                            
0001172d  ti_sysbios_family_arm_v7r_vim_Hwi_delete                             
00011731  ti_sysbios_knl_Swi_runLoop__I                                        
00011869  DPU_AoAProcHWA_control                                               
00011901  __TI_closefile                                                       
00011967  fclose                                                               
00011999  fputc                                                                
00011999  putc                                                                 
00011a1f  putchar                                                              
00011a30  ti_sysbios_family_xxx_Hwi_switchAndRunFunc                           
00011a7c  ti_sysbios_family_xxx_Hwi_switchAndRunDispatchC                      
00011b5f  HWA_configRam                                                        
00011bf5  ObjectDetection_Test_DPCDeinit                                       
00011c89  snprintf                                                             
00011d1c  ti_sysbios_family_arm_v7r_vim_Hwi_dispatchIRQ__I                     
00011db1  Mailbox_close                                                        
00011e41  ti_sysbios_family_arm_v7a_Pmu_startCounter__E                        
00011ed1  ObjectDetection_Test_startDPC                                        
00011f5d  ObjectDetection_Test_stopDPC                                         
00011fe9  SOC_init                                                             
00012075  SOC_translateAddress                                                 
00012101  ti_sysbios_family_arm_v7a_Pmu_getCount__E                            
0001218d  ti_sysbios_heaps_HeapMem_Module_GateProxy_enter__E                   
00012191  ti_sysbios_family_arm_v7r_vim_Hwi_Instance_finalize__E               
0001221d  ti_sysbios_heaps_HeapMem_Module_GateProxy_leave__E                   
00012221  xdc_runtime_Memory_alloc__E                                          
000122ad  HWA_disableParamSetInterrupt                                         
00012335  AoAProcHWA_cfgAndTrigger_EDMA_2DFFT                                  
000123bd  DPU_CFARCAProcHWA_init                                               
00012545  MemoryP_ctrlFree                                                     
00012551  ti_sysbios_timers_rti_Timer_initDevice__I                            
00012651  HwiP_create                                                          
000126d1  DPM_pipeSend                                                         
000127c8  ti_sysbios_family_arm_TaskSupport_buildTaskStack                     
00012845  SemaphoreP_post                                                      
00012845  SemaphoreP_postFromClock                                             
00012845  SemaphoreP_postFromISR                                               
00012851  ti_sysbios_knl_Clock_workFunc__E                                     
000128cd  ti_sysbios_knl_Clock_TimerProxy_getMaxTicks__E                       
000128d1  ti_sysbios_timers_rti_Timer_setPeriodMicroSecs__E                    
0001294d  ti_sysbios_knl_Semaphore_delete                                      
00012951  xdc_runtime_Core_deleteObject__I                                     
000129cd  __aeabi_memclr                                                       
000129cd  __aeabi_memclr4                                                      
000129cd  __aeabi_memclr8                                                      
000129cf  __aeabi_memset                                                       
000129cf  __aeabi_memset4                                                      
000129cf  __aeabi_memset8                                                      
000129d5  memset                                                               
00012abd  EDMA_isTransferComplete                                              
00012b30  _c_int00                                                             
00012ba5  finddevice                                                           
00012bd3  getdevice                                                            
00012c19  frexp                                                                
00012c19  frexpl                                                               
00012c8d  CFARHWA_saveConfiguration                                            
00012d71  HWA_close                                                            
00012e59  printf                                                               
00012ec1  xdc_runtime_Error_print__E                                           
00012f31  xdc_runtime_Text_visitRope2__I                                       
00013011  CFARCAHWA_config_EDMA                                                
0001307f  __TI_decompress_lzss                                                 
000130ed  __TI_writemsg                                                        
0001311f  C$$IO$$                                                              
00013123  __TI_readmsg                                                         
00013229  Mailbox_readFlush                                                    
00013361  HOSTlseek                                                            
000133c9  HOSTrename                                                           
00013495  EDMA_startDmaTransfer                                                
000134f9  HWA_getDMAChanIndex                                                  
0001355d  ObjectDetection_Test_edmaInit                                        
000135c1  SemaphoreP_create                                                    
00013625  fseek                                                                
00013689  sprintf                                                              
000136ec  ti_sysbios_family_arm_exc_Exception_initCore0__I                     
00013751  ti_sysbios_family_arm_v7r_vim_Hwi_phantomIntHandler__I               
000137b5  mathUtils_floorLog2                                                  
000137c1  ti_sysbios_knl_Task_schedule__I                                      
00013825  ti_sysbios_family_arm_v7r_tms570_Core_getId__E                       
00013825  ti_sysbios_hal_Core_CoreProxy_getId__E                               
00013831  xdc_runtime_Startup_exec__E                                          
00013895  DebugP_log2                                                          
000138f5  EDMA_close                                                           
00013955  xdc_runtime_Memory_HeapProxy_alloc__E                                
00013961  ti_sysbios_heaps_HeapMem_alloc__E                                    
000139c1  xdc_runtime_Assert_raise__I                                          
00013a21  xdc_runtime_Text_putLab__E                                           
00013a81  CFARHWA_fovConvertDoppler                                            
00013add  CFARHWA_prepareHwaRunTime                                            
00013b39  HOSTopen                                                             
00013b95  HOSTread                                                             
00013bf1  ti_sysbios_knl_Swi_schedule__I                                       
00013c4d  DPM_execute                                                          
00013cfd  DebugP_log0                                                          
00013d55  DebugP_log1                                                          
00013dad  EDMA3EnableChInShadowReg                                             
00013e05  ESM_highpriority_FIQ                                                 
00013e5d  HWA_getDMAconfig                                                     
00013eb5  ObjectDetection_Test_hwaOpen                                         
00013f0d  close                                                                
00013f65  HOSTwrite                                                            
00014069  ObjectDetection_Test_setCommonProfile                                
000140bd  ltoa                                                                 
00014111  ti_sysbios_family_arm_v7r_vim_Hwi_create                             
00014165  xdc_runtime_Memory_HeapProxy_free__E                                 
00014171  ti_sysbios_heaps_HeapMem_getStats__E                                 
000141c5  xdc_runtime_Memory_HeapProxy_getStats__E                             
000141d1  ti_sysbios_knl_Task_startCore__E                                     
00014225  SemaphoreP_Params_init                                               
0001422d  xdc_runtime_System_Module_GateProxy_enter__E                         
00014231  xdc_runtime_Core_assignLabel__I                                      
00014285  DPEDMA_setup_shadow_link                                             
000142d7  EDMA3MapChToEvtQ                                                     
00014329  ObjectDetection_Test_hwaClose                                        
00014379  atoi                                                                 
000143c9  C$$EXIT                                                              
000143cd  abort                                                                
000143cd  xdc_runtime_System_abortStd__E                                       
000143d5  exit                                                                 
000143d5  xdc_runtime_System_exitStd__E                                        
00014418  __aeabi_uidiv                                                        
00014418  __aeabi_uidivmod                                                     
00014471  xdc_runtime_System_exit__E                                           
000144c1  AoAProcHWA_findSinglePeak                                            
0001450d  DPU_StaticClutterProc_config                                         
00014559  EDMA_disableChannel                                                  
000145a5  EDMA_enableChannel                                                   
000145f1  HWA_enableDoneInterrupt                                              
00014689  copy_in                                                              
000146d4  ti_sysbios_family_arm_v7a_Pmu_getEnabled__E                          
000146dd  xdc_runtime_System_Module_GateProxy_leave__E                         
000146e1  ti_sysbios_family_arm_v7r_vim_Hwi_getStackInfo__E                    
000146e1  ti_sysbios_hal_Hwi_HwiProxy_getStackInfo__E                          
000146e1  ti_sysbios_hal_Hwi_getStackInfo__E                                   
0001472d  ti_sysbios_knl_Task_create                                           
00014811  xdc_runtime_Core_assignParams__I                                     
0001485b  CycleprofilerP_getTimeStamp                                          
00014861  xdc_runtime_Text_xprintf__I                                          
000148ab  CFARHWA_convHwaCfarDetListToDetMask                                  
000148f3  DPM_pipeRecv                                                         
00014985  HWA_readCFARPeakCountReg                                             
000149cd  ObjectDetection_Test_EDMA_errorCallbackFxn                           
00014a15  ObjectDetection_Test_EDMA_transferControllerErrorCallbackFxn         
00014aa5  DPM_start                                                            
00014ae9  DPM_stop                                                             
00014b2d  EDMA_linkParamSets                                                   
00014bb5  SOC_resetDMA                                                         
00014bf9  HOSTclose                                                            
00014c3d  HOSTunlink                                                           
00014c81  ti_sysbios_family_arm_v7r_tms570_Core_Module_startup__E              
00014ccb  EDMA3ClrCCErr                                                        
00014cd1  ti_sysbios_knl_Task_allBlockedFunction__I                            
00014d15  EDMA3ErrIntrHighStatusGet                                            
00014d1b  EDMA3GetCCErrStatus                                                  
00014d21  xdc_runtime_System_atexit__E                                         
00014da7  HWA_reset                                                            
00014e29  HWA_getHWAMemInfo                                                    
00014e69  ObjectDetection_Test_initComponents                                  
00014ea9  EDMA3GetErrIntrStatus                                                
00014eb1  ti_sysbios_family_arm_v7r_vim_Hwi_setType__E                         
00014ef1  ti_sysbios_knl_Swi_post__E                                           
00014f31  ti_sysbios_timers_rti_Timer_stop__E                                  
000150a7  HWA_enable                                                           
000150e5  SOC_unhaltBSS                                                        
00015120  ti_sysbios_family_arm_v7r_vim_Hwi_init__I                            
00015161  ti_sysbios_hal_Hwi_checkStack                                        
000151a1  ti_sysbios_heaps_HeapMem_init__I                                     
000151e1  ti_sysbios_knl_Swi_startup__E                                        
00015221  ti_sysbios_timers_rti_Timer_setPeriod__E                             
0001525d  HWA_setDMA2ACCManualTrig                                             
00015299  HwiP_delete                                                          
000152d5  DPM_notifyExecute                                                    
0001530d  EDMA3ClrMissEvt                                                      
00015345  EDMA3QdmaGetErrIntrStatus                                            
0001534b  HwiP_restore                                                         
00015351  ti_sysbios_knl_Task_sleepTimeout__I                                  
00015389  strncpy                                                              
000153f5  HWA_disableDoneInterrupt                                             
00015429  SOC_enableHWA                                                        
0001545d  SOC_setMSSLinkState                                                  
00015491  ti_sysbios_knl_Semaphore_create                                      
000154d1  ti_sysbios_knl_Task_processVitalTaskFlag__I                          
00015505  CFARHWA_fovConvertRange                                              
000155a1  ti_sysbios_hal_Hwi_initStack                                         
000155d5  EDMA_setDestinationAddress                                           
00015605  RandSimple                                                           
00015635  ti_sysbios_BIOS_atExitFunc__I                                        
00015665  ti_sysbios_BIOS_startFunc__I                                         
000156a1  ti_sysbios_family_arm_TaskSupport_start__E                           
000156a1  ti_sysbios_knl_Task_SupportProxy_start__E                            
000156d1  ti_sysbios_gates_GateHwi_Object__create__S                           
00015701  ti_sysbios_gates_GateMutex_Object__create__S                         
00015731  ti_sysbios_heaps_HeapMem_Object__create__S                           
00015761  ti_sysbios_heaps_HeapMem_free__E                                     
00015791  ti_sysbios_knl_Semaphore_construct                                   
000157c1  xdc_runtime_Text_printVisFxn__I                                      
000157f1  CFARHWA_triggerCFAR                                                  
0001584d  HWA_getCfarPeakCntRegAddress                                         
0001587b  _DPC_Objdet_Assert                                                   
000158a9  malloc                                                               
000158d7  DPM_pipeInit                                                         
00015905  DPU_StaticClutterProc_init                                           
0001595d  sqrt                                                                 
0001595d  sqrtl                                                                
00015989  remove                                                               
00015989  unlink                                                               
000159b5  ti_sysbios_knl_Clock_doTick__I                                       
000159e1  ti_sysbios_knl_Queue_construct                                       
00015a11  ti_sysbios_knl_Semaphore_pendTimeout__I                              
00015a41  ti_sysbios_knl_Swi_Module_startup__E                                 
00015a71  ti_sysbios_knl_Task_unblockI__E                                      
00015aa1  ti_sysbios_timers_rti_Timer_periodicStub__E                          
00015af7  DPM_pipeDeinit                                                       
00015b21  SOC_SystemISR                                                        
00015b75  DPM_msgInitHeader                                                    
00015b9d  DPU_RangeProcHWA_deinit                                              
00015bc5  Mailbox_Config_init                                                  
00015bed  lseek                                                                
00015c15  read                                                                 
00015c3d  write                                                                
00015c71  ti_sysbios_knl_Idle_run__E                                           
00015ca1  ti_sysbios_knl_Task_restore__E                                       
00015cd1  xdc_runtime_SysStd_abort__E                                          
00015cd1  xdc_runtime_System_SupportProxy_abort__E                             
00015d01  xdc_runtime_System_aprintf_va__F                                     
00015d29  DPU_StaticClutterProc_waitInData                                     
00015d4f  DPU_StaticClutterProc_waitOutData                                    
00015d75  memcmp                                                               
00015da1  xdc_runtime_System_printf_va__F                                      
00015dc9  EDMA3ClrEvt                                                          
00015ded  EDMA3ClrIntr                                                         
00015e11  EDMA3DisableDmaEvt                                                   
00015e35  EDMA3DisableEvtIntr                                                  
00015e59  EDMA3EnableDmaEvt                                                    
00015e7d  EDMA3EnableEvtIntr                                                   
00015ea1  EDMA3SetEvt                                                          
00015ee9  MCPI_Initialize                                                      
00015f0d  ObjectDetection_Test_getChirpData                                    
00015f31  SOC_isDSSOperational                                                 
00015f55  ti_sysbios_BIOS_errorRaiseHook__I                                    
00015f79  ti_sysbios_BIOS_registerRTSLock__I                                   
00015f9d  ti_sysbios_BIOS_removeRTSLock__I                                     
00015fc1  ti_sysbios_gates_GateMutex_Object__delete__S                         
00015ff1  ti_sysbios_knl_Clock_Module_startup__E                               
00016015  ti_sysbios_knl_Semaphore_Object__delete__S                           
00016041  ti_sysbios_knl_Task_restoreHwi__E                                    
00016087  DPM_listCat                                                          
000160a9  EDMA3QdmaClrMissEvt                                                  
000160c9  ESM_lowpriority_IRQ                                                  
000160e9  memchr                                                               
00016111  ti_sysbios_family_arm_v7a_Pmu_Module_startup__E                      
00016131  ti_sysbios_family_arm_v7r_vim_Hwi_Object__delete__S                  
00016151  ti_sysbios_family_arm_v7r_vim_Hwi_disableInterrupt__E                
00016151  ti_sysbios_hal_Hwi_HwiProxy_disableInterrupt__E                      
00016151  ti_sysbios_hal_Hwi_disableInterrupt__E                               
00016171  ti_sysbios_family_arm_v7r_vim_Hwi_enableInterrupt__E                 
00016171  ti_sysbios_hal_Hwi_HwiProxy_enableInterrupt__E                       
00016171  ti_sysbios_hal_Hwi_enableInterrupt__E                                
00016191  ti_sysbios_gates_GateHwi_Object__delete__S                           
000161b1  ti_sysbios_heaps_HeapMem_Object__delete__S                           
000161d1  ti_sysbios_knl_Semaphore_destruct                                    
000161f1  AoAProcHWA_waitEdma                                                  
0001620f  CFARHWA_isHwaCfarDetected                                            
0001624b  SOC_getOutAddr_LUTType                                               
00016269  strcat                                                               
000162f7  DPM_listRemove                                                       
00016315  DPU_AoAProcHWA_deinit                                                
00016331  DPU_StaticClutterProc_deinit                                         
0001634d  SOC_getInAddr_LUTType                                                
00016368  ti_sysbios_family_arm_TaskSupport_glue                               
00016384  ti_sysbios_family_arm_TaskSupport_swap__E                            
00016384  ti_sysbios_knl_Task_SupportProxy_swap__E                             
000163a1  memccpy                                                              
000163bd  ti_sysbios_BIOS_rtsLock__I                                           
000163e1  ti_sysbios_gates_GateMutex_Instance_init__E                          
00016401  ti_sysbios_gates_GateMutex_leave__E                                  
0001641d  ti_sysbios_knl_Queue_destruct                                        
00016439  DPM_listAdd                                                          
000164a1  EDMA3SetPaRAM                                                        
000164bb  free                                                                 
000164ef  copysign                                                             
000164ef  copysignl                                                            
00016509  ti_sysbios_gates_GateHwi_Handle__label__S                            
00016509  xdc_runtime_Main_Module_GateProxy_Handle__label__S                   
00016509  xdc_runtime_System_Module_GateProxy_Handle__label__S                 
00016523  ti_sysbios_BIOS_RtsGateProxy_Handle__label__S                        
00016523  ti_sysbios_gates_GateMutex_Handle__label__S                          
00016523  ti_sysbios_heaps_HeapMem_Module_GateProxy_Handle__label__S           
0001653d  ti_sysbios_heaps_HeapMem_Handle__label__S                            
0001653d  xdc_runtime_Memory_HeapProxy_Handle__label__S                        
00016557  xdc_runtime_System_aprintf__E                                        
00016571  xdc_runtime_System_printf__E                                         
000165bd  DPU_CFARCAProcHWA_deinit                                             
000165d5  DPU_DopplerProcHWA_deinit                                            
000165ed  EDMA3DisableQdmaEvt                                                  
00016605  EDMA3EnableQdmaEvt                                                   
00016665  _args_main                                                           
0001667d  __aeabi_lmul                                                         
00016695  strcmp                                                               
000166ad  ti_sysbios_BIOS_rtsUnlock__I                                         
000166c4  ti_sysbios_family_arm_v7a_Pmu_initCounters__I                        
000166dd  ti_sysbios_family_arm_v7r_vim_Hwi_Module__startupDone__F             
000166dd  ti_sysbios_family_arm_v7r_vim_Hwi_Module__startupDone__S             
000166dd  ti_sysbios_hal_Hwi_HwiProxy_Module__startupDone__S                   
000166f5  ti_sysbios_family_arm_v7r_vim_Hwi_Params__init__S                    
000166f5  ti_sysbios_hal_Hwi_HwiProxy_Params__init__S                          
00016711  ti_sysbios_family_arm_v7r_vim_Hwi_clearInterrupt__E                  
00016711  ti_sysbios_hal_Hwi_HwiProxy_clearInterrupt__E                        
00016711  ti_sysbios_hal_Hwi_clearInterrupt__E                                 
00016729  ti_sysbios_knl_Semaphore_Params__init__S                             
00016741  ti_sysbios_knl_Task_Params__init__S                                  
00016761  ti_sysbios_knl_Task_enter__I                                         
00016779  ti_sysbios_knl_Clock_TimerProxy_Module__startupDone__S               
00016779  ti_sysbios_timers_rti_Timer_Module__startupDone__F                   
00016779  ti_sysbios_timers_rti_Timer_Module__startupDone__S                   
00016791  xdc_runtime_Error_init__E                                            
000167a9  ObjectDetection_Test_deinitComponents                                
000167bf  ObjectDetection_Test_edmaClose                                       
000167eb  strchr                                                               
00016801  strlen                                                               
00016817  ti_sysbios_BIOS_exitFunc__I                                          
00016831  ti_sysbios_knl_Idle_loop__E                                          
00016847  CycleprofilerP_init                                                  
0001685d  EDMA3GetIntrStatus                                                   
00016871  EDMA3IntrStatusHighGet                                               
00016885  EDMA3MapQdmaChToPaRAM                                                
00016899  HwiP_Params_init                                                     
000168ad  MCPI_setTestResult                                                   
000168c1  _DebugP_assert                                                       
000168d5  mathUtils_ceilLog2                                                   
000168e9  _register_unlock                                                     
000168ef  _register_lock                                                       
000168f7  _nop                                                                 
000168fd  strcpy                                                               
00016911  ti_sysbios_heaps_HeapMem_Object__get__S                              
00016925  ti_sysbios_knl_Swi_Object__get__S                                    
00016939  EDMA3SetQdmaTrigWord                                                 
0001694b  MemoryP_ctrlAlloc                                                    
0001695d  SemaphoreP_pend                                                      
0001696f  mathUtils_pow2roundup                                                
00016981  ti_sysbios_hal_Hwi_Module_startup__E                                 
00016993  xdc_runtime_Startup_exec__I                                          
000169a5  ObjectDetection_Test_initGenerator                                   
000169c1  ti_sysbios_BIOS_exit__E                                              
000169d1  ti_sysbios_BIOS_setThreadType__E                                     
000169e1  ti_sysbios_BIOS_start__E                                             
000169f0  ti_sysbios_family_arm_v7a_Pmu_disableInterruptI__E                   
00016a00  ti_sysbios_family_arm_v7a_Pmu_enableInterruptI__E                    
00016a10  ti_sysbios_family_arm_v7a_Pmu_getNumCounters__E                      
00016a20  ti_sysbios_family_arm_v7a_Pmu_startCounterI__E                       
00016a30  ti_sysbios_family_arm_v7a_Pmu_stopCounterI__E                        
00016a41  ti_sysbios_gates_GateMutex_Instance_finalize__E                      
00016a51  ti_sysbios_heaps_HeapBuf_Object__get__S                              
00016a61  ti_sysbios_knl_Semaphore_Instance_finalize__E                        
00016a71  ti_sysbios_knl_Swi_disable__E                                        
00016a81  ti_sysbios_knl_Task_Object__get__S                                   
00016a91  ti_sysbios_knl_Task_disable__E                                       
00016aa1  xdc_runtime_Memory_free__E                                           
00016ab1  xdc_runtime_Memory_getStats__E                                       
00016ac1  xdc_runtime_Text_visitRope__I                                        
00016ad1  __TI_decompress_none                                                 
00016ae1  ti_sysbios_knl_Queue_empty__E                                        
00016af1  ti_sysbios_family_arm_TaskSupport_checkStack__E                      
00016af1  ti_sysbios_knl_Task_SupportProxy_checkStack__E                       
00016b01  ti_sysbios_family_arm_TaskSupport_getStackAlignment__E               
00016b01  ti_sysbios_knl_Task_SupportProxy_getStackAlignment__E                
00016b11  ti_sysbios_family_arm_exc_Exception_Module_startup__E                
00016b21  ti_sysbios_family_arm_v7r_vim_Hwi_switchFromBootStack__E             
00016b21  ti_sysbios_hal_Hwi_HwiProxy_switchFromBootStack__E                   
00016b21  ti_sysbios_hal_Hwi_switchFromBootStack__E                            
00016b31  xdc_runtime_Startup_rtsDone__E                                       
00016b41  xdc_runtime_SysStd_exit__E                                           
00016b41  xdc_runtime_System_SupportProxy_exit__E                              
00016b51  ti_sysbios_gates_GateHwi_enter__E                                    
00016b61  ti_sysbios_family_arm_v7r_vim_Hwi_startup__E                         
00016b61  ti_sysbios_hal_Hwi_HwiProxy_startup__E                               
00016b61  ti_sysbios_hal_Hwi_startup__E                                        
00016b71  ti_sysbios_gates_GateHwi_leave__E                                    
00016b81  ti_sysbios_heaps_HeapMem_isBlocking__E                               
00016b91  ti_sysbios_knl_Queue_Instance_init__E                                
00016ba1  xdc_runtime_System_Module_startup__E                                 
00016bb1  ti_sysbios_gates_GateHwi_query__E                                    
00016bb1  xdc_runtime_Main_Module_GateProxy_query__E                           
00016bb1  xdc_runtime_System_Module_GateProxy_query__E                         
00016bc1  ti_sysbios_BIOS_RtsGateProxy_query__E                                
00016bc1  ti_sysbios_gates_GateMutex_query__E                                  
00016bc1  ti_sysbios_heaps_HeapMem_Module_GateProxy_query__E                   
00016bd1  ti_sysbios_knl_Task_startup__E                                       
00016be1  ti_sysbios_timers_rti_Timer_getMaxTicks__E                           
00016bf1  xdc_runtime_SysStd_putch__E                                          
00016bf1  xdc_runtime_System_SupportProxy_putch__E                             
00016c01  xdc_runtime_SysStd_ready__E                                          
00016c01  xdc_runtime_System_SupportProxy_ready__E                             
00016c11  ti_sysbios_BIOS_linkedWithIncorrectBootLibrary__E                    
00016c21  ti_sysbios_gates_GateHwi_Instance_init__E                            
00016c31  ti_sysbios_knl_Clock_logTick__E                                      
00016c38  xdc_runtime_Text_charTab__A                                          
00018900  _ctypes_                                                             
00018a02  xdc_runtime_Text_nodeTab__A                                          
00018ada  ti_sysbios_family_arm_v7r_vim_Hwi_channelMap__A                      
00018b5a  ti_sysbios_family_arm_exc_Exception_Module__id__C                    
00018bb4  ti_sysbios_knl_Task_Object__PARAMS__C                                
00018c38  gEdmaHwAttrs                                                         
00018ca0  ti_sysbios_family_arm_v7r_vim_Hwi_Object__PARAMS__C                  
00018cd0  xdc_runtime_Startup_sfxnTab__A                                       
00018cfc  gDPMMessageFxnTable                                                  
00018d24  ti_sysbios_heaps_HeapMem_Module__FXNS__C                             
00018d4c  Mailbox_defaultCfg                                                   
00018d70  ti_sysbios_gates_GateHwi_Module__FXNS__C                             
00018d94  ti_sysbios_gates_GateMutex_Module__FXNS__C                           
00018db8  ti_sysbios_heaps_HeapMem_Object__PARAMS__C                           
00018ddc  ti_sysbios_knl_Semaphore_Object__PARAMS__C                           
00018e20  ti_sysbios_family_arm_v7r_vim_Hwi_Object__DESC__C                    
00018e40  ti_sysbios_gates_GateHwi_Object__DESC__C                             
00018e60  ti_sysbios_gates_GateMutex_Object__DESC__C                           
00018e80  ti_sysbios_heaps_HeapMem_Object__DESC__C                             
00018ea0  ti_sysbios_knl_Queue_Object__DESC__C                                 
00018ec0  ti_sysbios_knl_Semaphore_Object__DESC__C                             
00018ee0  ti_sysbios_knl_Task_Object__DESC__C                                  
00018f00  ti_sysbios_gates_GateHwi_Object__PARAMS__C                           
00018f18  ti_sysbios_gates_GateMutex_Object__PARAMS__C                         
00018f30  ti_sysbios_knl_Queue_Object__PARAMS__C                               
00018f48  xdc_runtime_Startup_sfxnRts__A                                       
00018f5e  ti_sysbios_family_arm_v7a_Pmu_Module__id__C                          
00018f70  ti_sysbios_family_arm_v7r_vim_Hwi_intReqEnaSet__A                    
00018f80  ti_sysbios_family_arm_v7r_vim_Hwi_wakeEnaSet__A                      
00018f90  ti_sysbios_knl_Idle_funcList__C                                      
00018f98  xdc_runtime_Startup_firstFxns__A                                     
00018fa0  xdc_runtime_Startup_firstFxns__C                                     
00018fa8  xdc_runtime_Startup_lastFxns__C                                      
00018fb0  ti_sysbios_family_arm_TaskSupport_stackAlignment__C                  
00018fb4  ti_sysbios_family_arm_exc_Exception_E_dataAbort__C                   
00018fb8  ti_sysbios_family_arm_exc_Exception_E_prefetchAbort__C               
00018fbc  ti_sysbios_family_arm_exc_Exception_E_swi__C                         
00018fc0  ti_sysbios_family_arm_exc_Exception_E_undefinedInstruction__C        
00018fc4  ti_sysbios_family_arm_exc_Exception_excHookFuncs__A                  
00018fc8  ti_sysbios_family_arm_exc_Exception_excHookFuncs__C                  
00018fcc  ti_sysbios_family_arm_v7a_Pmu_A_invalidCounterId__C                  
00018fd0  ti_sysbios_family_arm_v7a_Pmu_Module__diagsEnabled__C                
00018fd4  ti_sysbios_family_arm_v7a_Pmu_Module__diagsIncluded__C               
00018fd8  ti_sysbios_family_arm_v7a_Pmu_Module__diagsMask__C                   
00018fdc  ti_sysbios_family_arm_v7r_tms570_Core_E_mismatchedIds__C             
00018fe0  ti_sysbios_family_arm_v7r_tms570_Core_id__C                          
00018fe4  ti_sysbios_family_arm_v7r_vim_Hwi_A_badChannelId__C                  
00018fe8  ti_sysbios_family_arm_v7r_vim_Hwi_E_alreadyDefined__C                
00018fec  ti_sysbios_family_arm_v7r_vim_Hwi_E_badIntNum__C                     
00018ff0  ti_sysbios_family_arm_v7r_vim_Hwi_E_phantomInterrupt__C              
00018ff4  ti_sysbios_family_arm_v7r_vim_Hwi_E_undefined__C                     
00018ff8  ti_sysbios_family_arm_v7r_vim_Hwi_E_unsupportedMaskingOption__C      
00018ffc  ti_sysbios_family_arm_v7r_vim_Hwi_Module__diagsEnabled__C            
00019000  ti_sysbios_family_arm_v7r_vim_Hwi_Module__diagsIncluded__C           
00019004  ti_sysbios_family_arm_v7r_vim_Hwi_Module__diagsMask__C               
00019008  ti_sysbios_family_arm_v7r_vim_Hwi_NUM_INTERRUPTS__C                  
0001900c  ti_sysbios_family_arm_v7r_vim_Hwi_channelMap__C                      
00019010  ti_sysbios_family_arm_v7r_vim_Hwi_intReqEnaSet__C                    
00019014  ti_sysbios_family_arm_v7r_vim_Hwi_phantomFunc__C                     
00019018  ti_sysbios_family_arm_v7r_vim_Hwi_swiDisable__C                      
0001901c  ti_sysbios_family_arm_v7r_vim_Hwi_swiRestoreHwi__C                   
00019020  ti_sysbios_family_arm_v7r_vim_Hwi_taskDisable__C                     
00019024  ti_sysbios_family_arm_v7r_vim_Hwi_taskRestoreHwi__C                  
00019028  ti_sysbios_family_arm_v7r_vim_Hwi_wakeEnaSet__C                      
0001902c  ti_sysbios_gates_GateMutex_A_badContext__C                           
00019030  ti_sysbios_gates_GateMutex_Instance_State_sem__O                     
00019034  ti_sysbios_gates_GateMutex_Module__diagsEnabled__C                   
00019038  ti_sysbios_gates_GateMutex_Module__diagsIncluded__C                  
0001903c  ti_sysbios_gates_GateMutex_Module__diagsMask__C                      
00019040  ti_sysbios_hal_Hwi_E_stackOverflow__C                                
00019044  ti_sysbios_heaps_HeapBuf_Instance_State_freeList__O                  
00019048  ti_sysbios_heaps_HeapBuf_Object__count__C                            
0001904c  ti_sysbios_heaps_HeapBuf_numConstructedHeaps__C                      
00019050  ti_sysbios_heaps_HeapMem_A_align__C                                  
00019054  ti_sysbios_heaps_HeapMem_A_heapSize__C                               
00019058  ti_sysbios_heaps_HeapMem_A_invalidFree__C                            
0001905c  ti_sysbios_heaps_HeapMem_A_zeroBlock__C                              
00019060  ti_sysbios_heaps_HeapMem_E_memory__C                                 
00019064  ti_sysbios_heaps_HeapMem_Module__diagsEnabled__C                     
00019068  ti_sysbios_heaps_HeapMem_Module__diagsIncluded__C                    
0001906c  ti_sysbios_heaps_HeapMem_Module__diagsMask__C                        
00019070  ti_sysbios_heaps_HeapMem_Module__gateObj__C                          
00019074  ti_sysbios_heaps_HeapMem_Object__count__C                            
00019078  ti_sysbios_heaps_HeapMem_reqAlign__C                                 
0001907c  ti_sysbios_knl_Clock_Module_State_clockQ__O                          
00019080  ti_sysbios_knl_Idle_funcList__A                                      
00019084  ti_sysbios_knl_Semaphore_A_badContext__C                             
00019088  ti_sysbios_knl_Semaphore_A_noEvents__C                               
0001908c  ti_sysbios_knl_Semaphore_A_overflow__C                               
00019090  ti_sysbios_knl_Semaphore_A_pendTaskDisabled__C                       
00019094  ti_sysbios_knl_Semaphore_Instance_State_pendQ__O                     
00019098  ti_sysbios_knl_Semaphore_Module__diagsEnabled__C                     
0001909c  ti_sysbios_knl_Semaphore_Module__diagsIncluded__C                    
000190a0  ti_sysbios_knl_Semaphore_Module__diagsMask__C                        
000190a4  ti_sysbios_knl_Swi_Object__count__C                                  
000190a8  ti_sysbios_knl_Task_A_badPriority__C                                 
000190ac  ti_sysbios_knl_Task_A_badTaskState__C                                
000190b0  ti_sysbios_knl_Task_A_badThreadType__C                               
000190b4  ti_sysbios_knl_Task_A_badTimeout__C                                  
000190b8  ti_sysbios_knl_Task_A_noPendElem__C                                  
000190bc  ti_sysbios_knl_Task_A_sleepTaskDisabled__C                           
000190c0  ti_sysbios_knl_Task_E_spOutOfBounds__C                               
000190c4  ti_sysbios_knl_Task_E_stackOverflow__C                               
000190c8  ti_sysbios_knl_Task_Module_State_inactiveQ__O                        
000190cc  ti_sysbios_knl_Task_Module__diagsEnabled__C                          
000190d0  ti_sysbios_knl_Task_Module__diagsIncluded__C                         
000190d4  ti_sysbios_knl_Task_Module__diagsMask__C                             
000190d8  ti_sysbios_knl_Task_Object__count__C                                 
000190dc  ti_sysbios_knl_Task_allBlockedFunc__C                                
000190e0  ti_sysbios_knl_Task_defaultStackHeap__C                              
000190e4  ti_sysbios_knl_Task_defaultStackSize__C                              
000190e8  ti_sysbios_knl_Task_numConstructedTasks__C                           
000190ec  ti_sysbios_timers_rti_Timer_E_cannotSupport__C                       
000190f0  ti_sysbios_timers_rti_Timer_Module__diagsEnabled__C                  
000190f4  ti_sysbios_timers_rti_Timer_Module__diagsIncluded__C                 
000190f8  ti_sysbios_timers_rti_Timer_Module__diagsMask__C                     
000190fc  ti_sysbios_timers_rti_Timer_numTimerDevices__C                       
00019100  ti_sysbios_timers_rti_Timer_startupNeeded__C                         
00019104  xdc_runtime_Assert_E_assertFailed__C                                 
00019108  xdc_runtime_Core_A_initializedParams__C                              
0001910c  xdc_runtime_Core_Module__diagsEnabled__C                             
00019110  xdc_runtime_Core_Module__diagsIncluded__C                            
00019114  xdc_runtime_Core_Module__diagsMask__C                                
00019118  xdc_runtime_Error_E_memory__C                                        
0001911c  xdc_runtime_Error_policyFxn__C                                       
00019120  xdc_runtime_Error_policy__C                                          
00019124  xdc_runtime_Error_raiseHook__C                                       
00019128  xdc_runtime_IGateProvider_Interface__BASE__C                         
0001912c  xdc_runtime_IHeap_Interface__BASE__C                                 
00019130  xdc_runtime_IModule_Interface__BASE__C                               
00019134  xdc_runtime_Main_Module__diagsEnabled__C                             
00019138  xdc_runtime_Main_Module__diagsIncluded__C                            
0001913c  xdc_runtime_Main_Module__diagsMask__C                                
00019140  xdc_runtime_Main_Module__loggerFxn1__C                               
00019144  xdc_runtime_Main_Module__loggerFxn2__C                               
00019148  xdc_runtime_Main_Module__loggerFxn4__C                               
0001914c  xdc_runtime_Main_Module__loggerObj__C                                
00019150  xdc_runtime_Memory_defaultHeapInstance__C                            
00019154  xdc_runtime_Startup_execImpl__C                                      
00019158  xdc_runtime_Startup_maxPasses__C                                     
0001915c  xdc_runtime_Startup_sfxnRts__C                                       
00019160  xdc_runtime_Startup_sfxnTab__C                                       
00019164  xdc_runtime_System_Module__gateObj__C                                
00019168  xdc_runtime_System_abortFxn__C                                       
0001916c  xdc_runtime_System_exitFxn__C                                        
00019170  xdc_runtime_System_extendFxn__C                                      
00019174  xdc_runtime_System_maxAtexitHandlers__C                              
00019178  xdc_runtime_Text_charTab__C                                          
0001917c  xdc_runtime_Text_nameEmpty__C                                        
00019180  xdc_runtime_Text_nameStatic__C                                       
00019184  xdc_runtime_Text_nameUnknown__C                                      
00019188  xdc_runtime_Text_nodeTab__C                                          
0001918c  xdc_runtime_Text_visitRopeFxn__C                                     
00019190  ti_sysbios_family_arm_v7r_tms570_Core_Module__id__C                  
00019192  ti_sysbios_family_arm_v7r_vim_Hwi_Module__id__C                      
00019194  ti_sysbios_gates_GateMutex_Module__id__C                             
00019196  ti_sysbios_hal_Hwi_Module__id__C                                     
00019198  ti_sysbios_heaps_HeapMem_Module__id__C                               
0001919a  ti_sysbios_knl_Semaphore_Module__id__C                               
0001919c  ti_sysbios_knl_Task_Module__id__C                                    
0001919e  ti_sysbios_timers_rti_Timer_Module__id__C                            
000191a0  ti_sysbios_timers_rti_Timer_continueOnSuspend__C                     
000191a2  xdc_runtime_Core_Module__id__C                                       
000191a4  xdc_runtime_Error_maxDepth__C                                        
000191a6  xdc_runtime_Main_Module__id__C                                       
000191a8  xdc_runtime_Main_Module__loggerDefined__C                            
000191aa  xdc_runtime_Memory_Module__id__C                                     
000191ac  xdc_runtime_Text_charCnt__C                                          
000191ae  xdc_runtime_Text_isLoaded__C                                         
000191b0  xdc_runtime_Text_registryModsLastId__C                               
000191b2  xdc_runtime_Text_unnamedModsLastId__C                                
00019598  __TI_Handler_Table_Base                                              
000195a4  __TI_Handler_Table_Limit                                             
000195c8  __TI_CINIT_Base                                                      
000195f0  __TI_CINIT_Limit                                                     
08000000  gObjectDetection_Test_TCMramHeap                                     
08010000  gObjectDetection_Test_chirpData                                      
08014000  ti_sysbios_heaps_HeapMem_Instance_State_0_buf__A                     
08024000  ti_sysbios_family_arm_exc_Exception_Module_State_0_excStack_0__A     
08025000  ti_sysbios_knl_Task_Instance_State_0_stack__A                        
08025400  ti_sysbios_family_arm_v7r_vim_Hwi_Module_State_0_fiqStack__A         
08025800  __CIOBUF_                                                            
08025920  __TI_tmpnams                                                         
080259c0  gEsmMCB                                                              
08025a30  parmbuf                                                              
08025a38  gObjDetObj                                                           
08025a40  gNumSubFrames                                                        
08025a41  gReadTestConfigFromBinFile                                           
08025a42  gCurrTestId                                                          
08025a44  gMaxL3RamUsageTestId                                                 
08025a46  gMaxTCMUsageTestId                                                   
08025a48  socHandle                                                            
08025a4c  gMaxL3RamUsage                                                       
08025a50  gMaxTCMUsage                                                         
08025a54  stdEvmCliTxAntOrder                                                  
08025a5c  gDataPathObj                                                         
08025e8c  gGenFrameDataObj                                                     
08026764  gFrameConfig                                                         
080272d4  gEDMA_4K_errata_check                                                
080272d8  edmaDbg                                                              
080279e0  ti_sysbios_family_arm_v7r_vim_Hwi_Module_State_0_dispatchTable__A    
08027be0  _ftable                                                              
08027cd0  ti_sysbios_knl_Swi_Module_State_0_readyQ__A                          
08027d50  ti_sysbios_knl_Task_Module_State_0_readyQ__A                         
08027dd0  _device                                                              
08027e48  ti_sysbios_knl_Task_Object__table__V                                 
08027ea4  _stream                                                              
08027ef4  gMailboxMCB                                                          
08027f44  ti_sysbios_knl_Task_Module__state__V                                 
08027f8c  SOC_TranslateAddr_LUT                                                
08027fcc  ti_sysbios_gates_GateMutex_Object__table__V                          
0802800c  ti_sysbios_timers_rti_Timer_Object__table__V                         
08028048  ti_sysbios_family_arm_v7r_vim_Hwi_Module__state__V                   
0802807c  gHWAHwCfg                                                            
080280ac  ti_sysbios_knl_Swi_Object__table__V                                  
080280dc  ti_sysbios_family_arm_v7r_vim_Hwi_Object__table__V                   
08028108  ti_sysbios_knl_Clock_Module__state__V                                
08028134  gDPC_ObjectDetectionCfg                                              
08028158  ti_sysbios_BIOS_Module__state__V                                     
0802817c  gAntennaSpacing                                                      
08028180  gSOCHwAttrib                                                         
080281a0  xdc_runtime_Error_IgnoreBlock                                        
080281c0  xdc_runtime_System_Module_State_0_atexitHandlers__A                  
080281e0  gAntDef_AWR1843AOP                                                   
080281fc  ti_sysbios_knl_Swi_Module__state__V                                  
08028218  gMailboxMssBssHwCfg                                                  
08028230  gMailboxMssDssHwCfg                                                  
08028248  ti_sysbios_heaps_HeapMem_Object__table__V                            
08028260  ti_sysbios_timers_rti_Timer_Module_State_0_device__A                 
08028278  gDPMRemoteTable                                                      
0802828c  ti_sysbios_family_arm_exc_Exception_Module__state__V                 
080282b0  gHwaEDMAChanMapping                                                  
080282c0  __TI_ft_end                                                          
080282c4  __aeabi_stdin                                                        
080282c8  __aeabi_stdout                                                       
080282cc  __aeabi_stderr                                                       
080282d0  ti_sysbios_timers_rti_Timer_Module_State_0_intFreqs__A               
080282e0  ti_sysbios_timers_rti_Timer_Module__state__V                         
080282f0  MCPI_Result                                                          
080282f4  MCPI_FailSignature                                                   
080282fc  __TI_cleanup_ptr                                                     
08028300  __TI_dtors_ptr                                                       
08028304  __TI_enable_exit_profile_output                                      
08028308  gESMHwCfgAttrs                                                       
08028314  ti_sysbios_family_arm_v7a_Pmu_Module__state__V                       
08028320  _lock                                                                
08028324  _unlock                                                              
08028328  gDPMHwAttrib                                                         
08028330  ti_sysbios_family_arm_v7r_vim_Hwi_Module__root__V                    
08028338  ti_sysbios_gates_GateHwi_Module__root__V                             
08028340  ti_sysbios_gates_GateMutex_Module__root__V                           
08028348  ti_sysbios_hal_Hwi_Object__table__V                                  
08028350  ti_sysbios_heaps_HeapMem_Module__root__V                             
08028358  ti_sysbios_knl_Queue_Module__root__V                                 
08028360  ti_sysbios_knl_Semaphore_Module__root__V                             
08028368  ti_sysbios_knl_Task_Module__root__V                                  
08028370  ti_sysbios_timers_rti_Timer_Module_State_0_handles__A                
08028378  xdc_runtime_Registry_Module__state__V                                
08028380  xdc_runtime_Startup_Module__state__V                                 
08028388  xdc_runtime_System_Module__state__V                                  
08028390  gHWADriverPtr                                                        
08028394  gDPM                                                                 
08028398  regionId                                                             
0802839c  gMCPILogMessageSize                                                  
080283a0  errno                                                                
080283ac  main_func_sp                                                         
080283b0  ti_sysbios_family_arm_exc_Exception_Module_State_0_excContext__A     
080283b4  ti_sysbios_family_arm_exc_Exception_Module_State_0_excStackBuffers__A
080283b8  ti_sysbios_family_arm_exc_Exception_Module_State_0_excStack__A       
080283bc  ti_sysbios_gates_GateHwi_Object__table__V                            
080283c0  ti_sysbios_heaps_HeapBuf_Module__state__V                            
080283c4  ti_sysbios_knl_Task_Module_State_0_idleTask__A                       
080283c8  xdc_runtime_Memory_Module__state__V                                  
080283cc  ti_sysbios_family_arm_exc_Exception_Module_State_0_excActive__A      
080283ce  xdc_runtime_Error_Module__state__V                                   
080283d0  MCPI_logMessage                                                      
0802a7d0  __stack                                                              
0802b7d0  __STACK_END                                                          
51000000  gObjectDetection_Test_L3Heap                                         
fffffdec  ti_sysbios_family_arm_v7r_vim_Hwi_vim                                
ffffffff  __TI_pprof_out_hndl                                                  
ffffffff  __TI_prof_data_size                                                  
ffffffff  __TI_prof_data_start                                                 
ffffffff  __binit__                                                            
ffffffff  __c_args__                                                           
ffffffff  binit                                                                
UNDEFED   SHT$$INIT_ARRAY$$Base                                                
UNDEFED   SHT$$INIT_ARRAY$$Limit                                               

[879 symbols]
